
STEROWNIK_GSM.elf:     file format elf32-avr

Sections:
Idx Name          Size      VMA       LMA       File off  Algn
  0 .text         00001ba4  00000000  00000000  00000094  2**1
                  CONTENTS, ALLOC, LOAD, READONLY, CODE
  1 .data         0000005c  00800060  00001ba4  00001c38  2**0
                  CONTENTS, ALLOC, LOAD, DATA
  2 .bss          000002e3  008000bc  008000bc  00001c94  2**0
                  ALLOC

Disassembly of section .text:

00000000 <__vectors>:
       0:	0c 94 cf 00 	jmp	0x19e	; 0x19e <__ctors_end>
       4:	0c 94 ec 00 	jmp	0x1d8	; 0x1d8 <__bad_interrupt>
       8:	0c 94 ec 00 	jmp	0x1d8	; 0x1d8 <__bad_interrupt>
       c:	0c 94 ec 00 	jmp	0x1d8	; 0x1d8 <__bad_interrupt>
      10:	0c 94 ec 00 	jmp	0x1d8	; 0x1d8 <__bad_interrupt>
      14:	0c 94 ec 00 	jmp	0x1d8	; 0x1d8 <__bad_interrupt>
      18:	0c 94 ec 00 	jmp	0x1d8	; 0x1d8 <__bad_interrupt>
      1c:	0c 94 ec 00 	jmp	0x1d8	; 0x1d8 <__bad_interrupt>
      20:	0c 94 ec 00 	jmp	0x1d8	; 0x1d8 <__bad_interrupt>
      24:	0c 94 ec 00 	jmp	0x1d8	; 0x1d8 <__bad_interrupt>
      28:	0c 94 e8 09 	jmp	0x13d0	; 0x13d0 <__vector_10>
      2c:	0c 94 ec 00 	jmp	0x1d8	; 0x1d8 <__bad_interrupt>
      30:	0c 94 ec 00 	jmp	0x1d8	; 0x1d8 <__bad_interrupt>
      34:	0c 94 cd 08 	jmp	0x119a	; 0x119a <__vector_13>
      38:	0c 94 a7 08 	jmp	0x114e	; 0x114e <__vector_14>
      3c:	0c 94 ec 00 	jmp	0x1d8	; 0x1d8 <__bad_interrupt>
      40:	0c 94 ec 00 	jmp	0x1d8	; 0x1d8 <__bad_interrupt>
      44:	0c 94 ec 00 	jmp	0x1d8	; 0x1d8 <__bad_interrupt>
      48:	0c 94 ec 00 	jmp	0x1d8	; 0x1d8 <__bad_interrupt>
      4c:	0c 94 ec 00 	jmp	0x1d8	; 0x1d8 <__bad_interrupt>
      50:	0c 94 ec 00 	jmp	0x1d8	; 0x1d8 <__bad_interrupt>

00000054 <__c.1516>:
      54:	2b 43 4d 54 3a 20 22 00                             +CMT: ".

0000005c <__c.1514>:
      5c:	41 54 2b 43 4d 47 53 3d 22 00                       AT+CMGS=".

00000066 <__c.1512>:
      66:	41 54 2b 43 4d 47 46 3d 31 20 00                    AT+CMGF=1 .

00000071 <__c.1510>:
      71:	41 54 2b 43 43 4c 4b 3f 20 00                       AT+CCLK? .

0000007b <__c.1508>:
      7b:	41 54 2b 43 43 4c 4b 3d 00                          AT+CCLK=.

00000084 <__c.1506>:
      84:	41 54 2b 43 42 43 20 00                             AT+CBC .

0000008c <__c.1504>:
      8c:	41 54 2b 43 53 51 20 00                             AT+CSQ .

00000094 <__c.1502>:
      94:	2b 43 52 45 47 3a 20 30 2c 31 00                    +CREG: 0,1.

0000009f <__c.1500>:
      9f:	41 54 2b 43 52 45 47 3f 20 00                       AT+CREG? .

000000a9 <__c.1498>:
      a9:	45 52 52 4f 52 00                                   ERROR.

000000af <__c.1496>:
      af:	4f 4b 00                                            OK.

000000b2 <__c.1494>:
      b2:	41 54 45 30 00                                      ATE0.

000000b7 <__c.1492>:
      b7:	41 54 45 30 20 00                                   ATE0 .

000000bd <__c.1490>:
      bd:	43 61 6c 6c 20 52 65 61 64 79 00                    Call Ready.

000000c8 <__c.1488>:
      c8:	2b 43 50 49 4e 3a 20 52 45 41 44 59 00              +CPIN: READY.

000000d5 <__c.1486>:
      d5:	2b 43 46 55 4e 3a 20 31 00                          +CFUN: 1.

000000de <__c.1484>:
      de:	52 44 59 00                                         RDY.

000000e2 <__c.1482>:
      e2:	46 72 6f 6d 20 43 48 41 52 47 45 2d 4f 4e 4c 59     From CHARGE-ONLY
      f2:	20 4d 4f 44 45 20 74 6f 20 4e 4f 52 4d 41 4c 00      MODE to NORMAL.

00000102 <__c.1480>:
     102:	43 48 41 52 47 45 2d 4f 4e 4c 59 20 4d 4f 44 45     CHARGE-ONLY MODE
	...

00000113 <__c.1478>:
     113:	47 41 53 20 41 4c 41 52 4d 2f 00                    GAS ALARM/.

0000011e <__c.1476>:
     11e:	48 55 4d 20 41 4c 41 52 4d 2f 00                    HUM ALARM/.

00000129 <__c.1474>:
     129:	54 45 4d 50 20 41 4c 41 52 4d 2f 00                 TEMP ALARM/.

00000135 <__c.1472>:
     135:	4d 41 58 20 47 41 53 3a 20 2f 00                    MAX GAS: /.

00000140 <__c.1470>:
     140:	4d 41 58 20 48 55 4d 3a 20 2f 00                    MAX HUM: /.

0000014b <__c.1468>:
     14b:	4d 41 58 20 54 45 4d 50 3a 20 2f 00                 MAX TEMP: /.

00000157 <__c.1466>:
     157:	47 41 53 3a 20 2f 00                                GAS: /.

0000015e <__c.1464>:
     15e:	48 55 4d 3a 20 2f 00                                HUM: /.

00000165 <__c.1462>:
     165:	54 45 4d 50 3a 20 2f 00                             TEMP: /.

0000016d <__c.1460>:
     16d:	45 52 52 2f 00                                      ERR/.

00000172 <__c.1458>:
     172:	4f 4b 2f 00                                         OK/.

00000176 <__c.1456>:
     176:	4d 6f 76 65 6d 65 6e 74 2f 00                       Movement/.

00000180 <__c.1454>:
     180:	43 52 49 3b 00                                      CRI;.

00000185 <__c.1452>:
     185:	47 45 54 3b 00                                      GET;.

0000018a <__c.1450>:
     18a:	53 45 54 3a 20 00                                   SET: .

00000190 <__c.1448>:
     190:	53 79 73 74 65 6d 20 53 74 61 72 74 2f 00           System Start/.

0000019e <__ctors_end>:
     19e:	11 24       	eor	r1, r1
     1a0:	1f be       	out	0x3f, r1	; 63
     1a2:	cf e5       	ldi	r28, 0x5F	; 95
     1a4:	d8 e0       	ldi	r29, 0x08	; 8
     1a6:	de bf       	out	0x3e, r29	; 62
     1a8:	cd bf       	out	0x3d, r28	; 61

000001aa <__do_copy_data>:
     1aa:	10 e0       	ldi	r17, 0x00	; 0
     1ac:	a0 e6       	ldi	r26, 0x60	; 96
     1ae:	b0 e0       	ldi	r27, 0x00	; 0
     1b0:	e4 ea       	ldi	r30, 0xA4	; 164
     1b2:	fb e1       	ldi	r31, 0x1B	; 27
     1b4:	02 c0       	rjmp	.+4      	; 0x1ba <.do_copy_data_start>

000001b6 <.do_copy_data_loop>:
     1b6:	05 90       	lpm	r0, Z+
     1b8:	0d 92       	st	X+, r0

000001ba <.do_copy_data_start>:
     1ba:	ac 3b       	cpi	r26, 0xBC	; 188
     1bc:	b1 07       	cpc	r27, r17
     1be:	d9 f7       	brne	.-10     	; 0x1b6 <.do_copy_data_loop>

000001c0 <__do_clear_bss>:
     1c0:	13 e0       	ldi	r17, 0x03	; 3
     1c2:	ac eb       	ldi	r26, 0xBC	; 188
     1c4:	b0 e0       	ldi	r27, 0x00	; 0
     1c6:	01 c0       	rjmp	.+2      	; 0x1ca <.do_clear_bss_start>

000001c8 <.do_clear_bss_loop>:
     1c8:	1d 92       	st	X+, r1

000001ca <.do_clear_bss_start>:
     1ca:	af 39       	cpi	r26, 0x9F	; 159
     1cc:	b1 07       	cpc	r27, r17
     1ce:	e1 f7       	brne	.-8      	; 0x1c8 <.do_clear_bss_loop>
     1d0:	0e 94 74 0a 	call	0x14e8	; 0x14e8 <main>
     1d4:	0c 94 d0 0d 	jmp	0x1ba0	; 0x1ba0 <_exit>

000001d8 <__bad_interrupt>:
     1d8:	0c 94 00 00 	jmp	0	; 0x0 <__vectors>

000001dc <dht_read>:
     1dc:	1f 93       	push	r17
     1de:	10 92 bd 00 	sts	0x00BD, r1
     1e2:	10 92 be 00 	sts	0x00BE, r1
     1e6:	10 92 bf 00 	sts	0x00BF, r1
     1ea:	10 92 c0 00 	sts	0x00C0, r1
     1ee:	f8 94       	cli
     1f0:	a7 9a       	sbi	0x14, 7	; 20
     1f2:	af 9a       	sbi	0x15, 7	; 21
     1f4:	88 ee       	ldi	r24, 0xE8	; 232
     1f6:	93 e0       	ldi	r25, 0x03	; 3
     1f8:	24 e1       	ldi	r18, 0x14	; 20
     1fa:	31 e0       	ldi	r19, 0x01	; 1
     1fc:	f9 01       	movw	r30, r18
     1fe:	31 97       	sbiw	r30, 0x01	; 1
     200:	f1 f7       	brne	.-4      	; 0x1fe <dht_read+0x22>
     202:	01 97       	sbiw	r24, 0x01	; 1
     204:	d9 f7       	brne	.-10     	; 0x1fc <dht_read+0x20>
     206:	af 98       	cbi	0x15, 7	; 21
     208:	86 e6       	ldi	r24, 0x66	; 102
     20a:	92 ec       	ldi	r25, 0xC2	; 194
     20c:	01 97       	sbiw	r24, 0x01	; 1
     20e:	f1 f7       	brne	.-4      	; 0x20c <dht_read+0x30>
     210:	af 9a       	sbi	0x15, 7	; 21
     212:	a7 98       	cbi	0x14, 7	; 20
     214:	83 e9       	ldi	r24, 0x93	; 147
     216:	8a 95       	dec	r24
     218:	f1 f7       	brne	.-4      	; 0x216 <dht_read+0x3a>
     21a:	9f 99       	sbic	0x13, 7	; 19
     21c:	57 c0       	rjmp	.+174    	; 0x2cc <dht_read+0xf0>
     21e:	2d ed       	ldi	r18, 0xDD	; 221
     220:	30 e0       	ldi	r19, 0x00	; 0
     222:	c9 01       	movw	r24, r18
     224:	01 97       	sbiw	r24, 0x01	; 1
     226:	f1 f7       	brne	.-4      	; 0x224 <dht_read+0x48>
     228:	9f 9b       	sbis	0x13, 7	; 19
     22a:	50 c0       	rjmp	.+160    	; 0x2cc <dht_read+0xf0>
     22c:	c9 01       	movw	r24, r18
     22e:	01 97       	sbiw	r24, 0x01	; 1
     230:	f1 f7       	brne	.-4      	; 0x22e <dht_read+0x52>
     232:	60 e0       	ldi	r22, 0x00	; 0
     234:	70 e0       	ldi	r23, 0x00	; 0
     236:	1e e6       	ldi	r17, 0x6E	; 110
     238:	a1 e0       	ldi	r26, 0x01	; 1
     23a:	b0 e0       	ldi	r27, 0x00	; 0
     23c:	33 e9       	ldi	r19, 0x93	; 147
     23e:	2b c0       	rjmp	.+86     	; 0x296 <dht_read+0xba>
     240:	9f 9b       	sbis	0x13, 7	; 19
     242:	fe cf       	rjmp	.-4      	; 0x240 <dht_read+0x64>
     244:	81 2f       	mov	r24, r17
     246:	8a 95       	dec	r24
     248:	f1 f7       	brne	.-4      	; 0x246 <dht_read+0x6a>
     24a:	9f 9b       	sbis	0x13, 7	; 19
     24c:	0e c0       	rjmp	.+28     	; 0x26a <dht_read+0x8e>
     24e:	20 81       	ld	r18, Z
     250:	cd 01       	movw	r24, r26
     252:	04 2e       	mov	r0, r20
     254:	02 c0       	rjmp	.+4      	; 0x25a <dht_read+0x7e>
     256:	88 0f       	add	r24, r24
     258:	99 1f       	adc	r25, r25
     25a:	0a 94       	dec	r0
     25c:	e2 f7       	brpl	.-8      	; 0x256 <dht_read+0x7a>
     25e:	28 2b       	or	r18, r24
     260:	20 83       	st	Z, r18
     262:	83 2f       	mov	r24, r19
     264:	8a 95       	dec	r24
     266:	f1 f7       	brne	.-4      	; 0x264 <dht_read+0x88>
     268:	0b c0       	rjmp	.+22     	; 0x280 <dht_read+0xa4>
     26a:	20 81       	ld	r18, Z
     26c:	cd 01       	movw	r24, r26
     26e:	04 2e       	mov	r0, r20
     270:	02 c0       	rjmp	.+4      	; 0x276 <dht_read+0x9a>
     272:	88 0f       	add	r24, r24
     274:	99 1f       	adc	r25, r25
     276:	0a 94       	dec	r0
     278:	e2 f7       	brpl	.-8      	; 0x272 <dht_read+0x96>
     27a:	80 95       	com	r24
     27c:	82 23       	and	r24, r18
     27e:	80 83       	st	Z, r24
     280:	41 50       	subi	r20, 0x01	; 1
     282:	50 40       	sbci	r21, 0x00	; 0
     284:	8f ef       	ldi	r24, 0xFF	; 255
     286:	4f 3f       	cpi	r20, 0xFF	; 255
     288:	58 07       	cpc	r21, r24
     28a:	d1 f6       	brne	.-76     	; 0x240 <dht_read+0x64>
     28c:	6f 5f       	subi	r22, 0xFF	; 255
     28e:	7f 4f       	sbci	r23, 0xFF	; 255
     290:	65 30       	cpi	r22, 0x05	; 5
     292:	71 05       	cpc	r23, r1
     294:	31 f0       	breq	.+12     	; 0x2a2 <dht_read+0xc6>
     296:	47 e0       	ldi	r20, 0x07	; 7
     298:	50 e0       	ldi	r21, 0x00	; 0
     29a:	fb 01       	movw	r30, r22
     29c:	e3 54       	subi	r30, 0x43	; 67
     29e:	ff 4f       	sbci	r31, 0xFF	; 255
     2a0:	cf cf       	rjmp	.-98     	; 0x240 <dht_read+0x64>
     2a2:	30 91 bd 00 	lds	r19, 0x00BD
     2a6:	80 91 be 00 	lds	r24, 0x00BE
     2aa:	90 91 bf 00 	lds	r25, 0x00BF
     2ae:	20 91 c0 00 	lds	r18, 0x00C0
     2b2:	83 0f       	add	r24, r19
     2b4:	89 0f       	add	r24, r25
     2b6:	82 0f       	add	r24, r18
     2b8:	80 93 c2 00 	sts	0x00C2, r24
     2bc:	90 91 c1 00 	lds	r25, 0x00C1
     2c0:	89 17       	cp	r24, r25
     2c2:	21 f4       	brne	.+8      	; 0x2cc <dht_read+0xf0>
     2c4:	78 94       	sei
     2c6:	2d eb       	ldi	r18, 0xBD	; 189
     2c8:	30 e0       	ldi	r19, 0x00	; 0
     2ca:	02 c0       	rjmp	.+4      	; 0x2d0 <dht_read+0xf4>
     2cc:	20 e0       	ldi	r18, 0x00	; 0
     2ce:	30 e0       	ldi	r19, 0x00	; 0
     2d0:	c9 01       	movw	r24, r18
     2d2:	1f 91       	pop	r17
     2d4:	08 95       	ret

000002d6 <lcd_sendHalf>:
     2d6:	80 ff       	sbrs	r24, 0
     2d8:	02 c0       	rjmp	.+4      	; 0x2de <lcd_sendHalf+0x8>
     2da:	db 9a       	sbi	0x1b, 3	; 27
     2dc:	01 c0       	rjmp	.+2      	; 0x2e0 <lcd_sendHalf+0xa>
     2de:	db 98       	cbi	0x1b, 3	; 27
     2e0:	81 ff       	sbrs	r24, 1
     2e2:	02 c0       	rjmp	.+4      	; 0x2e8 <lcd_sendHalf+0x12>
     2e4:	dc 9a       	sbi	0x1b, 4	; 27
     2e6:	01 c0       	rjmp	.+2      	; 0x2ea <lcd_sendHalf+0x14>
     2e8:	dc 98       	cbi	0x1b, 4	; 27
     2ea:	82 ff       	sbrs	r24, 2
     2ec:	02 c0       	rjmp	.+4      	; 0x2f2 <lcd_sendHalf+0x1c>
     2ee:	dd 9a       	sbi	0x1b, 5	; 27
     2f0:	01 c0       	rjmp	.+2      	; 0x2f4 <lcd_sendHalf+0x1e>
     2f2:	dd 98       	cbi	0x1b, 5	; 27
     2f4:	83 ff       	sbrs	r24, 3
     2f6:	02 c0       	rjmp	.+4      	; 0x2fc <lcd_sendHalf+0x26>
     2f8:	de 9a       	sbi	0x1b, 6	; 27
     2fa:	08 95       	ret
     2fc:	de 98       	cbi	0x1b, 6	; 27
     2fe:	08 95       	ret

00000300 <_lcd_write_byte>:
     300:	1f 93       	push	r17
     302:	18 2f       	mov	r17, r24
     304:	d6 9a       	sbi	0x1a, 6	; 26
     306:	d5 9a       	sbi	0x1a, 5	; 26
     308:	d4 9a       	sbi	0x1a, 4	; 26
     30a:	d3 9a       	sbi	0x1a, 3	; 26
     30c:	da 9a       	sbi	0x1b, 2	; 27
     30e:	82 95       	swap	r24
     310:	8f 70       	andi	r24, 0x0F	; 15
     312:	0e 94 6b 01 	call	0x2d6	; 0x2d6 <lcd_sendHalf>
     316:	da 98       	cbi	0x1b, 2	; 27
     318:	da 9a       	sbi	0x1b, 2	; 27
     31a:	81 2f       	mov	r24, r17
     31c:	0e 94 6b 01 	call	0x2d6	; 0x2d6 <lcd_sendHalf>
     320:	da 98       	cbi	0x1b, 2	; 27
     322:	8b e4       	ldi	r24, 0x4B	; 75
     324:	91 e0       	ldi	r25, 0x01	; 1
     326:	01 97       	sbiw	r24, 0x01	; 1
     328:	f1 f7       	brne	.-4      	; 0x326 <_lcd_write_byte+0x26>
     32a:	1f 91       	pop	r17
     32c:	08 95       	ret

0000032e <lcd_write_cmd>:
     32e:	d9 98       	cbi	0x1b, 1	; 27
     330:	0e 94 80 01 	call	0x300	; 0x300 <_lcd_write_byte>
     334:	08 95       	ret

00000336 <lcd_write_data>:
     336:	d9 9a       	sbi	0x1b, 1	; 27
     338:	0e 94 80 01 	call	0x300	; 0x300 <_lcd_write_byte>
     33c:	08 95       	ret

0000033e <lcd_char>:
     33e:	98 2f       	mov	r25, r24
     340:	80 58       	subi	r24, 0x80	; 128
     342:	88 30       	cpi	r24, 0x08	; 8
     344:	08 f4       	brcc	.+2      	; 0x348 <lcd_char+0xa>
     346:	97 70       	andi	r25, 0x07	; 7
     348:	89 2f       	mov	r24, r25
     34a:	0e 94 9b 01 	call	0x336	; 0x336 <lcd_write_data>
     34e:	08 95       	ret

00000350 <lcd_str>:
     350:	cf 93       	push	r28
     352:	df 93       	push	r29
     354:	ec 01       	movw	r28, r24
     356:	08 c0       	rjmp	.+16     	; 0x368 <lcd_str+0x18>
     358:	89 2f       	mov	r24, r25
     35a:	80 58       	subi	r24, 0x80	; 128
     35c:	88 30       	cpi	r24, 0x08	; 8
     35e:	08 f4       	brcc	.+2      	; 0x362 <lcd_str+0x12>
     360:	97 70       	andi	r25, 0x07	; 7
     362:	89 2f       	mov	r24, r25
     364:	0e 94 9b 01 	call	0x336	; 0x336 <lcd_write_data>
     368:	99 91       	ld	r25, Y+
     36a:	99 23       	and	r25, r25
     36c:	a9 f7       	brne	.-22     	; 0x358 <lcd_str+0x8>
     36e:	df 91       	pop	r29
     370:	cf 91       	pop	r28
     372:	08 95       	ret

00000374 <lcd_defchar>:
     374:	1f 93       	push	r17
     376:	cf 93       	push	r28
     378:	df 93       	push	r29
     37a:	eb 01       	movw	r28, r22
     37c:	90 e0       	ldi	r25, 0x00	; 0
     37e:	87 70       	andi	r24, 0x07	; 7
     380:	90 70       	andi	r25, 0x00	; 0
     382:	08 96       	adiw	r24, 0x08	; 8
     384:	88 0f       	add	r24, r24
     386:	88 0f       	add	r24, r24
     388:	88 0f       	add	r24, r24
     38a:	0e 94 97 01 	call	0x32e	; 0x32e <lcd_write_cmd>
     38e:	10 e0       	ldi	r17, 0x00	; 0
     390:	89 91       	ld	r24, Y+
     392:	0e 94 9b 01 	call	0x336	; 0x336 <lcd_write_data>
     396:	1f 5f       	subi	r17, 0xFF	; 255
     398:	18 30       	cpi	r17, 0x08	; 8
     39a:	d1 f7       	brne	.-12     	; 0x390 <lcd_defchar+0x1c>
     39c:	df 91       	pop	r29
     39e:	cf 91       	pop	r28
     3a0:	1f 91       	pop	r17
     3a2:	08 95       	ret

000003a4 <lcd_locate>:
     3a4:	82 30       	cpi	r24, 0x02	; 2
     3a6:	31 f0       	breq	.+12     	; 0x3b4 <lcd_locate+0x10>
     3a8:	83 30       	cpi	r24, 0x03	; 3
     3aa:	31 f0       	breq	.+12     	; 0x3b8 <lcd_locate+0x14>
     3ac:	81 30       	cpi	r24, 0x01	; 1
     3ae:	29 f4       	brne	.+10     	; 0x3ba <lcd_locate+0x16>
     3b0:	88 e2       	ldi	r24, 0x28	; 40
     3b2:	03 c0       	rjmp	.+6      	; 0x3ba <lcd_locate+0x16>
     3b4:	84 e1       	ldi	r24, 0x14	; 20
     3b6:	01 c0       	rjmp	.+2      	; 0x3ba <lcd_locate+0x16>
     3b8:	84 e5       	ldi	r24, 0x54	; 84
     3ba:	60 58       	subi	r22, 0x80	; 128
     3bc:	86 0f       	add	r24, r22
     3be:	0e 94 97 01 	call	0x32e	; 0x32e <lcd_write_cmd>
     3c2:	08 95       	ret

000003c4 <lcd_cls>:
     3c4:	81 e0       	ldi	r24, 0x01	; 1
     3c6:	0e 94 97 01 	call	0x32e	; 0x32e <lcd_write_cmd>
     3ca:	8b ee       	ldi	r24, 0xEB	; 235
     3cc:	94 e3       	ldi	r25, 0x34	; 52
     3ce:	01 97       	sbiw	r24, 0x01	; 1
     3d0:	f1 f7       	brne	.-4      	; 0x3ce <lcd_cls+0xa>
     3d2:	08 95       	ret

000003d4 <lcd_init>:
     3d4:	0f 93       	push	r16
     3d6:	1f 93       	push	r17
     3d8:	d6 9a       	sbi	0x1a, 6	; 26
     3da:	d5 9a       	sbi	0x1a, 5	; 26
     3dc:	d4 9a       	sbi	0x1a, 4	; 26
     3de:	d3 9a       	sbi	0x1a, 3	; 26
     3e0:	d1 9a       	sbi	0x1a, 1	; 26
     3e2:	d2 9a       	sbi	0x1a, 2	; 26
     3e4:	d9 98       	cbi	0x1b, 1	; 27
     3e6:	da 98       	cbi	0x1b, 2	; 27
     3e8:	80 e0       	ldi	r24, 0x00	; 0
     3ea:	92 ea       	ldi	r25, 0xA2	; 162
     3ec:	01 97       	sbiw	r24, 0x01	; 1
     3ee:	f1 f7       	brne	.-4      	; 0x3ec <lcd_init+0x18>
     3f0:	d9 98       	cbi	0x1b, 1	; 27
     3f2:	d8 98       	cbi	0x1b, 0	; 27
     3f4:	80 e3       	ldi	r24, 0x30	; 48
     3f6:	0e 94 6b 01 	call	0x2d6	; 0x2d6 <lcd_sendHalf>
     3fa:	87 e4       	ldi	r24, 0x47	; 71
     3fc:	9c e2       	ldi	r25, 0x2C	; 44
     3fe:	01 97       	sbiw	r24, 0x01	; 1
     400:	f1 f7       	brne	.-4      	; 0x3fe <lcd_init+0x2a>
     402:	80 e3       	ldi	r24, 0x30	; 48
     404:	0e 94 6b 01 	call	0x2d6	; 0x2d6 <lcd_sendHalf>
     408:	04 e1       	ldi	r16, 0x14	; 20
     40a:	11 e0       	ldi	r17, 0x01	; 1
     40c:	c8 01       	movw	r24, r16
     40e:	01 97       	sbiw	r24, 0x01	; 1
     410:	f1 f7       	brne	.-4      	; 0x40e <lcd_init+0x3a>
     412:	80 e2       	ldi	r24, 0x20	; 32
     414:	0e 94 6b 01 	call	0x2d6	; 0x2d6 <lcd_sendHalf>
     418:	c8 01       	movw	r24, r16
     41a:	01 97       	sbiw	r24, 0x01	; 1
     41c:	f1 f7       	brne	.-4      	; 0x41a <lcd_init+0x46>
     41e:	88 e2       	ldi	r24, 0x28	; 40
     420:	0e 94 97 01 	call	0x32e	; 0x32e <lcd_write_cmd>
     424:	88 e0       	ldi	r24, 0x08	; 8
     426:	0e 94 97 01 	call	0x32e	; 0x32e <lcd_write_cmd>
     42a:	8c e0       	ldi	r24, 0x0C	; 12
     42c:	0e 94 97 01 	call	0x32e	; 0x32e <lcd_write_cmd>
     430:	86 e0       	ldi	r24, 0x06	; 6
     432:	0e 94 97 01 	call	0x32e	; 0x32e <lcd_write_cmd>
     436:	0e 94 e2 01 	call	0x3c4	; 0x3c4 <lcd_cls>
     43a:	1f 91       	pop	r17
     43c:	0f 91       	pop	r16
     43e:	08 95       	ret

00000440 <lcd_hex>:
     440:	df 93       	push	r29
     442:	cf 93       	push	r28
     444:	cd b7       	in	r28, 0x3d	; 61
     446:	de b7       	in	r29, 0x3e	; 62
     448:	61 97       	sbiw	r28, 0x11	; 17
     44a:	0f b6       	in	r0, 0x3f	; 63
     44c:	f8 94       	cli
     44e:	de bf       	out	0x3e, r29	; 62
     450:	0f be       	out	0x3f, r0	; 63
     452:	cd bf       	out	0x3d, r28	; 61
     454:	be 01       	movw	r22, r28
     456:	6f 5f       	subi	r22, 0xFF	; 255
     458:	7f 4f       	sbci	r23, 0xFF	; 255
     45a:	40 e1       	ldi	r20, 0x10	; 16
     45c:	50 e0       	ldi	r21, 0x00	; 0
     45e:	0e 94 8b 0d 	call	0x1b16	; 0x1b16 <itoa>
     462:	0e 94 a8 01 	call	0x350	; 0x350 <lcd_str>
     466:	61 96       	adiw	r28, 0x11	; 17
     468:	0f b6       	in	r0, 0x3f	; 63
     46a:	f8 94       	cli
     46c:	de bf       	out	0x3e, r29	; 62
     46e:	0f be       	out	0x3f, r0	; 63
     470:	cd bf       	out	0x3d, r28	; 61
     472:	cf 91       	pop	r28
     474:	df 91       	pop	r29
     476:	08 95       	ret

00000478 <lcd_int>:
     478:	df 93       	push	r29
     47a:	cf 93       	push	r28
     47c:	cd b7       	in	r28, 0x3d	; 61
     47e:	de b7       	in	r29, 0x3e	; 62
     480:	61 97       	sbiw	r28, 0x11	; 17
     482:	0f b6       	in	r0, 0x3f	; 63
     484:	f8 94       	cli
     486:	de bf       	out	0x3e, r29	; 62
     488:	0f be       	out	0x3f, r0	; 63
     48a:	cd bf       	out	0x3d, r28	; 61
     48c:	be 01       	movw	r22, r28
     48e:	6f 5f       	subi	r22, 0xFF	; 255
     490:	7f 4f       	sbci	r23, 0xFF	; 255
     492:	4a e0       	ldi	r20, 0x0A	; 10
     494:	50 e0       	ldi	r21, 0x00	; 0
     496:	0e 94 8b 0d 	call	0x1b16	; 0x1b16 <itoa>
     49a:	0e 94 a8 01 	call	0x350	; 0x350 <lcd_str>
     49e:	61 96       	adiw	r28, 0x11	; 17
     4a0:	0f b6       	in	r0, 0x3f	; 63
     4a2:	f8 94       	cli
     4a4:	de bf       	out	0x3e, r29	; 62
     4a6:	0f be       	out	0x3f, r0	; 63
     4a8:	cd bf       	out	0x3d, r28	; 61
     4aa:	cf 91       	pop	r28
     4ac:	df 91       	pop	r29
     4ae:	08 95       	ret

000004b0 <send_sms>:
     4b0:	af 92       	push	r10
     4b2:	bf 92       	push	r11
     4b4:	cf 92       	push	r12
     4b6:	df 92       	push	r13
     4b8:	ef 92       	push	r14
     4ba:	ff 92       	push	r15
     4bc:	0f 93       	push	r16
     4be:	1f 93       	push	r17
     4c0:	cf 93       	push	r28
     4c2:	df 93       	push	r29
     4c4:	ec 01       	movw	r28, r24
     4c6:	94 2f       	mov	r25, r20
     4c8:	45 30       	cpi	r20, 0x05	; 5
     4ca:	10 f4       	brcc	.+4      	; 0x4d0 <send_sms+0x20>
     4cc:	74 2f       	mov	r23, r20
     4ce:	01 c0       	rjmp	.+2      	; 0x4d2 <send_sms+0x22>
     4d0:	70 e0       	ldi	r23, 0x00	; 0
     4d2:	00 91 9a 02 	lds	r16, 0x029A
     4d6:	10 91 9b 02 	lds	r17, 0x029B
     4da:	42 e2       	ldi	r20, 0x22	; 34
     4dc:	b4 2e       	mov	r11, r20
     4de:	3d e0       	ldi	r19, 0x0D	; 13
     4e0:	a3 2e       	mov	r10, r19
     4e2:	2a e0       	ldi	r18, 0x0A	; 10
     4e4:	d2 2e       	mov	r13, r18
     4e6:	8a e1       	ldi	r24, 0x1A	; 26
     4e8:	c8 2e       	mov	r12, r24
     4ea:	b4 e1       	ldi	r27, 0x14	; 20
     4ec:	eb 2e       	mov	r14, r27
     4ee:	b1 e0       	ldi	r27, 0x01	; 1
     4f0:	fb 2e       	mov	r15, r27
     4f2:	eb c0       	rjmp	.+470    	; 0x6ca <send_sms+0x21a>
     4f4:	47 2f       	mov	r20, r23
     4f6:	50 e0       	ldi	r21, 0x00	; 0
     4f8:	fa 01       	movw	r30, r20
     4fa:	ee 0f       	add	r30, r30
     4fc:	ff 1f       	adc	r31, r31
     4fe:	e4 0f       	add	r30, r20
     500:	f5 1f       	adc	r31, r21
     502:	ee 0f       	add	r30, r30
     504:	ff 1f       	adc	r31, r31
     506:	ee 0f       	add	r30, r30
     508:	ff 1f       	adc	r31, r31
     50a:	e3 51       	subi	r30, 0x13	; 19
     50c:	ff 4f       	sbci	r31, 0xFF	; 255
     50e:	80 81       	ld	r24, Z
     510:	8b 32       	cpi	r24, 0x2B	; 43
     512:	09 f0       	breq	.+2      	; 0x516 <send_sms+0x66>
     514:	d7 c0       	rjmp	.+430    	; 0x6c4 <send_sms+0x214>
     516:	20 e0       	ldi	r18, 0x00	; 0
     518:	30 e0       	ldi	r19, 0x00	; 0
     51a:	80 91 e6 00 	lds	r24, 0x00E6
     51e:	8f 5f       	subi	r24, 0xFF	; 255
     520:	80 93 e6 00 	sts	0x00E6, r24
     524:	a0 91 e6 00 	lds	r26, 0x00E6
     528:	b0 e0       	ldi	r27, 0x00	; 0
     52a:	f8 01       	movw	r30, r16
     52c:	e2 0f       	add	r30, r18
     52e:	f3 1f       	adc	r31, r19
     530:	e4 91       	lpm	r30, Z+
     532:	a4 5a       	subi	r26, 0xA4	; 164
     534:	be 4f       	sbci	r27, 0xFE	; 254
     536:	ec 93       	st	X, r30
     538:	2f 5f       	subi	r18, 0xFF	; 255
     53a:	3f 4f       	sbci	r19, 0xFF	; 255
     53c:	29 30       	cpi	r18, 0x09	; 9
     53e:	31 05       	cpc	r19, r1
     540:	61 f7       	brne	.-40     	; 0x51a <send_sms+0x6a>
     542:	da 01       	movw	r26, r20
     544:	aa 0f       	add	r26, r26
     546:	bb 1f       	adc	r27, r27
     548:	a4 0f       	add	r26, r20
     54a:	b5 1f       	adc	r27, r21
     54c:	aa 0f       	add	r26, r26
     54e:	bb 1f       	adc	r27, r27
     550:	aa 0f       	add	r26, r26
     552:	bb 1f       	adc	r27, r27
     554:	a3 51       	subi	r26, 0x13	; 19
     556:	bf 4f       	sbci	r27, 0xFF	; 255
     558:	20 e0       	ldi	r18, 0x00	; 0
     55a:	30 e0       	ldi	r19, 0x00	; 0
     55c:	80 91 e6 00 	lds	r24, 0x00E6
     560:	8f 5f       	subi	r24, 0xFF	; 255
     562:	80 93 e6 00 	sts	0x00E6, r24
     566:	e0 91 e6 00 	lds	r30, 0x00E6
     56a:	f0 e0       	ldi	r31, 0x00	; 0
     56c:	8d 91       	ld	r24, X+
     56e:	e4 5a       	subi	r30, 0xA4	; 164
     570:	fe 4f       	sbci	r31, 0xFE	; 254
     572:	80 83       	st	Z, r24
     574:	2f 5f       	subi	r18, 0xFF	; 255
     576:	3f 4f       	sbci	r19, 0xFF	; 255
     578:	2c 30       	cpi	r18, 0x0C	; 12
     57a:	31 05       	cpc	r19, r1
     57c:	79 f7       	brne	.-34     	; 0x55c <send_sms+0xac>
     57e:	80 91 e6 00 	lds	r24, 0x00E6
     582:	8f 5f       	subi	r24, 0xFF	; 255
     584:	80 93 e6 00 	sts	0x00E6, r24
     588:	e0 91 e6 00 	lds	r30, 0x00E6
     58c:	f0 e0       	ldi	r31, 0x00	; 0
     58e:	e4 5a       	subi	r30, 0xA4	; 164
     590:	fe 4f       	sbci	r31, 0xFE	; 254
     592:	b0 82       	st	Z, r11
     594:	80 91 e6 00 	lds	r24, 0x00E6
     598:	8f 5f       	subi	r24, 0xFF	; 255
     59a:	80 93 e6 00 	sts	0x00E6, r24
     59e:	e0 91 e6 00 	lds	r30, 0x00E6
     5a2:	f0 e0       	ldi	r31, 0x00	; 0
     5a4:	e4 5a       	subi	r30, 0xA4	; 164
     5a6:	fe 4f       	sbci	r31, 0xFE	; 254
     5a8:	a0 82       	st	Z, r10
     5aa:	80 91 e6 00 	lds	r24, 0x00E6
     5ae:	8f 5f       	subi	r24, 0xFF	; 255
     5b0:	80 93 e6 00 	sts	0x00E6, r24
     5b4:	e0 91 e6 00 	lds	r30, 0x00E6
     5b8:	f0 e0       	ldi	r31, 0x00	; 0
     5ba:	e4 5a       	subi	r30, 0xA4	; 164
     5bc:	fe 4f       	sbci	r31, 0xFE	; 254
     5be:	d0 82       	st	Z, r13
     5c0:	55 9a       	sbi	0x0a, 5	; 10
     5c2:	e0 91 c3 00 	lds	r30, 0x00C3
     5c6:	ed 5f       	subi	r30, 0xFD	; 253
     5c8:	f0 e0       	ldi	r31, 0x00	; 0
     5ca:	e2 56       	subi	r30, 0x62	; 98
     5cc:	fd 4f       	sbci	r31, 0xFD	; 253
     5ce:	80 81       	ld	r24, Z
     5d0:	8e 33       	cpi	r24, 0x3E	; 62
     5d2:	b9 f7       	brne	.-18     	; 0x5c2 <send_sms+0x112>
     5d4:	e0 91 c3 00 	lds	r30, 0x00C3
     5d8:	ec 5f       	subi	r30, 0xFC	; 252
     5da:	f0 e0       	ldi	r31, 0x00	; 0
     5dc:	e2 56       	subi	r30, 0x62	; 98
     5de:	fd 4f       	sbci	r31, 0xFD	; 253
     5e0:	80 81       	ld	r24, Z
     5e2:	80 32       	cpi	r24, 0x20	; 32
     5e4:	71 f7       	brne	.-36     	; 0x5c2 <send_sms+0x112>
     5e6:	80 91 63 02 	lds	r24, 0x0263
     5ea:	80 93 c3 00 	sts	0x00C3, r24
     5ee:	20 e0       	ldi	r18, 0x00	; 0
     5f0:	80 91 e6 00 	lds	r24, 0x00E6
     5f4:	8f 5f       	subi	r24, 0xFF	; 255
     5f6:	80 93 e6 00 	sts	0x00E6, r24
     5fa:	66 23       	and	r22, r22
     5fc:	29 f4       	brne	.+10     	; 0x608 <send_sms+0x158>
     5fe:	fe 01       	movw	r30, r28
     600:	e2 0f       	add	r30, r18
     602:	f1 1d       	adc	r31, r1
     604:	84 91       	lpm	r24, Z+
     606:	06 c0       	rjmp	.+12     	; 0x614 <send_sms+0x164>
     608:	61 30       	cpi	r22, 0x01	; 1
     60a:	61 f4       	brne	.+24     	; 0x624 <send_sms+0x174>
     60c:	fe 01       	movw	r30, r28
     60e:	e2 0f       	add	r30, r18
     610:	f1 1d       	adc	r31, r1
     612:	80 81       	ld	r24, Z
     614:	8f 32       	cpi	r24, 0x2F	; 47
     616:	41 f0       	breq	.+16     	; 0x628 <send_sms+0x178>
     618:	e0 91 e6 00 	lds	r30, 0x00E6
     61c:	f0 e0       	ldi	r31, 0x00	; 0
     61e:	e4 5a       	subi	r30, 0xA4	; 164
     620:	fe 4f       	sbci	r31, 0xFE	; 254
     622:	80 83       	st	Z, r24
     624:	2f 5f       	subi	r18, 0xFF	; 255
     626:	e4 cf       	rjmp	.-56     	; 0x5f0 <send_sms+0x140>
     628:	80 91 e6 00 	lds	r24, 0x00E6
     62c:	8f 5f       	subi	r24, 0xFF	; 255
     62e:	80 93 e6 00 	sts	0x00E6, r24
     632:	e0 91 e6 00 	lds	r30, 0x00E6
     636:	f0 e0       	ldi	r31, 0x00	; 0
     638:	e4 5a       	subi	r30, 0xA4	; 164
     63a:	fe 4f       	sbci	r31, 0xFE	; 254
     63c:	c0 82       	st	Z, r12
     63e:	55 9a       	sbi	0x0a, 5	; 10
     640:	e0 91 c3 00 	lds	r30, 0x00C3
     644:	e1 5f       	subi	r30, 0xF1	; 241
     646:	f0 e0       	ldi	r31, 0x00	; 0
     648:	e2 56       	subi	r30, 0x62	; 98
     64a:	fd 4f       	sbci	r31, 0xFD	; 253
     64c:	80 81       	ld	r24, Z
     64e:	8f 34       	cpi	r24, 0x4F	; 79
     650:	49 f4       	brne	.+18     	; 0x664 <send_sms+0x1b4>
     652:	e0 91 c3 00 	lds	r30, 0x00C3
     656:	e0 5f       	subi	r30, 0xF0	; 240
     658:	f0 e0       	ldi	r31, 0x00	; 0
     65a:	e2 56       	subi	r30, 0x62	; 98
     65c:	fd 4f       	sbci	r31, 0xFD	; 253
     65e:	80 81       	ld	r24, Z
     660:	8b 34       	cpi	r24, 0x4B	; 75
     662:	21 f1       	breq	.+72     	; 0x6ac <send_sms+0x1fc>
     664:	e0 91 c3 00 	lds	r30, 0x00C3
     668:	e0 5f       	subi	r30, 0xF0	; 240
     66a:	f0 e0       	ldi	r31, 0x00	; 0
     66c:	e2 56       	subi	r30, 0x62	; 98
     66e:	fd 4f       	sbci	r31, 0xFD	; 253
     670:	80 81       	ld	r24, Z
     672:	8f 34       	cpi	r24, 0x4F	; 79
     674:	49 f4       	brne	.+18     	; 0x688 <send_sms+0x1d8>
     676:	e0 91 c3 00 	lds	r30, 0x00C3
     67a:	ef 5e       	subi	r30, 0xEF	; 239
     67c:	f0 e0       	ldi	r31, 0x00	; 0
     67e:	e2 56       	subi	r30, 0x62	; 98
     680:	fd 4f       	sbci	r31, 0xFD	; 253
     682:	80 81       	ld	r24, Z
     684:	8b 34       	cpi	r24, 0x4B	; 75
     686:	91 f0       	breq	.+36     	; 0x6ac <send_sms+0x1fc>
     688:	e0 91 c3 00 	lds	r30, 0x00C3
     68c:	ef 5e       	subi	r30, 0xEF	; 239
     68e:	f0 e0       	ldi	r31, 0x00	; 0
     690:	e2 56       	subi	r30, 0x62	; 98
     692:	fd 4f       	sbci	r31, 0xFD	; 253
     694:	80 81       	ld	r24, Z
     696:	8f 34       	cpi	r24, 0x4F	; 79
     698:	99 f6       	brne	.-90     	; 0x640 <send_sms+0x190>
     69a:	e0 91 c3 00 	lds	r30, 0x00C3
     69e:	ee 5e       	subi	r30, 0xEE	; 238
     6a0:	f0 e0       	ldi	r31, 0x00	; 0
     6a2:	e2 56       	subi	r30, 0x62	; 98
     6a4:	fd 4f       	sbci	r31, 0xFD	; 253
     6a6:	80 81       	ld	r24, Z
     6a8:	8b 34       	cpi	r24, 0x4B	; 75
     6aa:	51 f6       	brne	.-108    	; 0x640 <send_sms+0x190>
     6ac:	28 e5       	ldi	r18, 0x58	; 88
     6ae:	32 e0       	ldi	r19, 0x02	; 2
     6b0:	f7 01       	movw	r30, r14
     6b2:	31 97       	sbiw	r30, 0x01	; 1
     6b4:	f1 f7       	brne	.-4      	; 0x6b2 <send_sms+0x202>
     6b6:	21 50       	subi	r18, 0x01	; 1
     6b8:	30 40       	sbci	r19, 0x00	; 0
     6ba:	d1 f7       	brne	.-12     	; 0x6b0 <send_sms+0x200>
     6bc:	80 91 63 02 	lds	r24, 0x0263
     6c0:	80 93 c3 00 	sts	0x00C3, r24
     6c4:	95 30       	cpi	r25, 0x05	; 5
     6c6:	20 f0       	brcs	.+8      	; 0x6d0 <send_sms+0x220>
     6c8:	7f 5f       	subi	r23, 0xFF	; 255
     6ca:	75 30       	cpi	r23, 0x05	; 5
     6cc:	08 f4       	brcc	.+2      	; 0x6d0 <send_sms+0x220>
     6ce:	12 cf       	rjmp	.-476    	; 0x4f4 <send_sms+0x44>
     6d0:	81 e0       	ldi	r24, 0x01	; 1
     6d2:	df 91       	pop	r29
     6d4:	cf 91       	pop	r28
     6d6:	1f 91       	pop	r17
     6d8:	0f 91       	pop	r16
     6da:	ff 90       	pop	r15
     6dc:	ef 90       	pop	r14
     6de:	df 90       	pop	r13
     6e0:	cf 90       	pop	r12
     6e2:	bf 90       	pop	r11
     6e4:	af 90       	pop	r10
     6e6:	08 95       	ret

000006e8 <sms_analyze>:
     6e8:	ff 92       	push	r15
     6ea:	0f 93       	push	r16
     6ec:	1f 93       	push	r17
     6ee:	f8 2e       	mov	r15, r24
     6f0:	e0 91 c3 00 	lds	r30, 0x00C3
     6f4:	ef 5f       	subi	r30, 0xFF	; 255
     6f6:	f0 e0       	ldi	r31, 0x00	; 0
     6f8:	e2 56       	subi	r30, 0x62	; 98
     6fa:	fd 4f       	sbci	r31, 0xFD	; 253
     6fc:	90 81       	ld	r25, Z
     6fe:	40 91 c8 00 	lds	r20, 0x00C8
     702:	50 91 c9 00 	lds	r21, 0x00C9
     706:	fa 01       	movw	r30, r20
     708:	84 91       	lpm	r24, Z+
     70a:	98 17       	cp	r25, r24
     70c:	09 f0       	breq	.+2      	; 0x710 <sms_analyze+0x28>
     70e:	a5 c1       	rjmp	.+842    	; 0xa5a <__stack+0x1fb>
     710:	84 ef       	ldi	r24, 0xF4	; 244
     712:	91 e0       	ldi	r25, 0x01	; 1
     714:	24 e1       	ldi	r18, 0x14	; 20
     716:	31 e0       	ldi	r19, 0x01	; 1
     718:	f9 01       	movw	r30, r18
     71a:	31 97       	sbiw	r30, 0x01	; 1
     71c:	f1 f7       	brne	.-4      	; 0x71a <sms_analyze+0x32>
     71e:	01 97       	sbiw	r24, 0x01	; 1
     720:	d9 f7       	brne	.-10     	; 0x718 <sms_analyze+0x30>
     722:	80 91 c3 00 	lds	r24, 0x00C3
     726:	8f 5f       	subi	r24, 0xFF	; 255
     728:	80 93 c3 00 	sts	0x00C3, r24
     72c:	21 e0       	ldi	r18, 0x01	; 1
     72e:	30 e0       	ldi	r19, 0x00	; 0
     730:	80 91 c3 00 	lds	r24, 0x00C3
     734:	f9 01       	movw	r30, r18
     736:	e8 0f       	add	r30, r24
     738:	f1 1d       	adc	r31, r1
     73a:	f0 70       	andi	r31, 0x00	; 0
     73c:	e2 56       	subi	r30, 0x62	; 98
     73e:	fd 4f       	sbci	r31, 0xFD	; 253
     740:	80 81       	ld	r24, Z
     742:	fa 01       	movw	r30, r20
     744:	e2 0f       	add	r30, r18
     746:	f3 1f       	adc	r31, r19
     748:	e4 91       	lpm	r30, Z+
     74a:	8e 17       	cp	r24, r30
     74c:	39 f0       	breq	.+14     	; 0x75c <sms_analyze+0x74>
     74e:	30 e0       	ldi	r19, 0x00	; 0
     750:	40 e0       	ldi	r20, 0x00	; 0
     752:	50 e0       	ldi	r21, 0x00	; 0
     754:	1a e0       	ldi	r17, 0x0A	; 10
     756:	61 e0       	ldi	r22, 0x01	; 1
     758:	70 e0       	ldi	r23, 0x00	; 0
     75a:	5f c1       	rjmp	.+702    	; 0xa1a <__stack+0x1bb>
     75c:	24 30       	cpi	r18, 0x04	; 4
     75e:	31 05       	cpc	r19, r1
     760:	29 f4       	brne	.+10     	; 0x76c <sms_analyze+0x84>
     762:	80 91 c3 00 	lds	r24, 0x00C3
     766:	8c 5f       	subi	r24, 0xFC	; 252
     768:	80 93 c3 00 	sts	0x00C3, r24
     76c:	2f 5f       	subi	r18, 0xFF	; 255
     76e:	3f 4f       	sbci	r19, 0xFF	; 255
     770:	25 30       	cpi	r18, 0x05	; 5
     772:	31 05       	cpc	r19, r1
     774:	e9 f6       	brne	.-70     	; 0x730 <sms_analyze+0x48>
     776:	31 e0       	ldi	r19, 0x01	; 1
     778:	eb cf       	rjmp	.-42     	; 0x750 <sms_analyze+0x68>
     77a:	e0 91 c3 00 	lds	r30, 0x00C3
     77e:	e3 0f       	add	r30, r19
     780:	f0 e0       	ldi	r31, 0x00	; 0
     782:	e2 56       	subi	r30, 0x62	; 98
     784:	fd 4f       	sbci	r31, 0xFD	; 253
     786:	80 81       	ld	r24, Z
     788:	84 35       	cpi	r24, 0x54	; 84
     78a:	09 f0       	breq	.+2      	; 0x78e <sms_analyze+0xa6>
     78c:	cb c0       	rjmp	.+406    	; 0x924 <__stack+0xc5>
     78e:	3f 5f       	subi	r19, 0xFF	; 255
     790:	e0 91 c3 00 	lds	r30, 0x00C3
     794:	e3 0f       	add	r30, r19
     796:	f0 e0       	ldi	r31, 0x00	; 0
     798:	e2 56       	subi	r30, 0x62	; 98
     79a:	fd 4f       	sbci	r31, 0xFD	; 253
     79c:	80 81       	ld	r24, Z
     79e:	82 35       	cpi	r24, 0x52	; 82
     7a0:	09 f0       	breq	.+2      	; 0x7a4 <sms_analyze+0xbc>
     7a2:	c0 c0       	rjmp	.+384    	; 0x924 <__stack+0xc5>
     7a4:	3f 5f       	subi	r19, 0xFF	; 255
     7a6:	e0 91 c3 00 	lds	r30, 0x00C3
     7aa:	e3 0f       	add	r30, r19
     7ac:	f0 e0       	ldi	r31, 0x00	; 0
     7ae:	e2 56       	subi	r30, 0x62	; 98
     7b0:	fd 4f       	sbci	r31, 0xFD	; 253
     7b2:	90 81       	ld	r25, Z
     7b4:	91 53       	subi	r25, 0x31	; 49
     7b6:	94 30       	cpi	r25, 0x04	; 4
     7b8:	08 f0       	brcs	.+2      	; 0x7bc <sms_analyze+0xd4>
     7ba:	59 c0       	rjmp	.+178    	; 0x86e <__stack+0xf>
     7bc:	3f 5f       	subi	r19, 0xFF	; 255
     7be:	e0 91 c3 00 	lds	r30, 0x00C3
     7c2:	e3 0f       	add	r30, r19
     7c4:	f0 e0       	ldi	r31, 0x00	; 0
     7c6:	e2 56       	subi	r30, 0x62	; 98
     7c8:	fd 4f       	sbci	r31, 0xFD	; 253
     7ca:	80 81       	ld	r24, Z
     7cc:	8d 33       	cpi	r24, 0x3D	; 61
     7ce:	09 f0       	breq	.+2      	; 0x7d2 <sms_analyze+0xea>
     7d0:	a9 c0       	rjmp	.+338    	; 0x924 <__stack+0xc5>
     7d2:	23 2f       	mov	r18, r19
     7d4:	2f 5f       	subi	r18, 0xFF	; 255
     7d6:	80 91 c3 00 	lds	r24, 0x00C3
     7da:	a2 2f       	mov	r26, r18
     7dc:	b0 e0       	ldi	r27, 0x00	; 0
     7de:	fd 01       	movw	r30, r26
     7e0:	e8 0f       	add	r30, r24
     7e2:	f1 1d       	adc	r31, r1
     7e4:	f0 70       	andi	r31, 0x00	; 0
     7e6:	e2 56       	subi	r30, 0x62	; 98
     7e8:	fd 4f       	sbci	r31, 0xFD	; 253
     7ea:	80 81       	ld	r24, Z
     7ec:	81 33       	cpi	r24, 0x31	; 49
     7ee:	41 f4       	brne	.+16     	; 0x800 <sms_analyze+0x118>
     7f0:	fb 01       	movw	r30, r22
     7f2:	02 c0       	rjmp	.+4      	; 0x7f8 <sms_analyze+0x110>
     7f4:	ee 0f       	add	r30, r30
     7f6:	ff 1f       	adc	r31, r31
     7f8:	9a 95       	dec	r25
     7fa:	e2 f7       	brpl	.-8      	; 0x7f4 <sms_analyze+0x10c>
     7fc:	4e 2b       	or	r20, r30
     7fe:	13 c0       	rjmp	.+38     	; 0x826 <sms_analyze+0x13e>
     800:	80 91 c3 00 	lds	r24, 0x00C3
     804:	a8 0f       	add	r26, r24
     806:	b1 1d       	adc	r27, r1
     808:	b0 70       	andi	r27, 0x00	; 0
     80a:	a2 56       	subi	r26, 0x62	; 98
     80c:	bd 4f       	sbci	r27, 0xFD	; 253
     80e:	8c 91       	ld	r24, X
     810:	80 33       	cpi	r24, 0x30	; 48
     812:	49 f4       	brne	.+18     	; 0x826 <sms_analyze+0x13e>
     814:	fb 01       	movw	r30, r22
     816:	02 c0       	rjmp	.+4      	; 0x81c <sms_analyze+0x134>
     818:	ee 0f       	add	r30, r30
     81a:	ff 1f       	adc	r31, r31
     81c:	9a 95       	dec	r25
     81e:	e2 f7       	brpl	.-8      	; 0x818 <sms_analyze+0x130>
     820:	cf 01       	movw	r24, r30
     822:	80 95       	com	r24
     824:	48 23       	and	r20, r24
     826:	92 2f       	mov	r25, r18
     828:	9f 5f       	subi	r25, 0xFF	; 255
     82a:	80 91 c3 00 	lds	r24, 0x00C3
     82e:	a9 2f       	mov	r26, r25
     830:	b0 e0       	ldi	r27, 0x00	; 0
     832:	fd 01       	movw	r30, r26
     834:	e8 0f       	add	r30, r24
     836:	f1 1d       	adc	r31, r1
     838:	f0 70       	andi	r31, 0x00	; 0
     83a:	e2 56       	subi	r30, 0x62	; 98
     83c:	fd 4f       	sbci	r31, 0xFD	; 253
     83e:	80 81       	ld	r24, Z
     840:	8b 33       	cpi	r24, 0x3B	; 59
     842:	99 f4       	brne	.+38     	; 0x86a <__stack+0xb>
     844:	80 91 c3 00 	lds	r24, 0x00C3
     848:	a8 0f       	add	r26, r24
     84a:	b1 1d       	adc	r27, r1
     84c:	b0 70       	andi	r27, 0x00	; 0
     84e:	a2 56       	subi	r26, 0x62	; 98
     850:	bd 4f       	sbci	r27, 0xFD	; 253
     852:	8c 91       	ld	r24, X
     854:	80 32       	cpi	r24, 0x20	; 32
     856:	21 f4       	brne	.+8      	; 0x860 <__stack+0x1>
     858:	80 91 c3 00 	lds	r24, 0x00C3
     85c:	8d 5f       	subi	r24, 0xFD	; 253
     85e:	03 c0       	rjmp	.+6      	; 0x866 <__stack+0x7>
     860:	80 91 c3 00 	lds	r24, 0x00C3
     864:	8e 5f       	subi	r24, 0xFE	; 254
     866:	89 0f       	add	r24, r25
     868:	54 c0       	rjmp	.+168    	; 0x912 <__stack+0xb3>
     86a:	39 2f       	mov	r19, r25
     86c:	5a c0       	rjmp	.+180    	; 0x922 <__stack+0xc3>
     86e:	94 30       	cpi	r25, 0x04	; 4
     870:	09 f0       	breq	.+2      	; 0x874 <__stack+0x15>
     872:	58 c0       	rjmp	.+176    	; 0x924 <__stack+0xc5>
     874:	3f 5f       	subi	r19, 0xFF	; 255
     876:	e0 91 c3 00 	lds	r30, 0x00C3
     87a:	e3 0f       	add	r30, r19
     87c:	f0 e0       	ldi	r31, 0x00	; 0
     87e:	e2 56       	subi	r30, 0x62	; 98
     880:	fd 4f       	sbci	r31, 0xFD	; 253
     882:	80 81       	ld	r24, Z
     884:	8d 33       	cpi	r24, 0x3D	; 61
     886:	09 f0       	breq	.+2      	; 0x88a <__stack+0x2b>
     888:	4d c0       	rjmp	.+154    	; 0x924 <__stack+0xc5>
     88a:	3f 5f       	subi	r19, 0xFF	; 255
     88c:	e0 91 c3 00 	lds	r30, 0x00C3
     890:	a3 2f       	mov	r26, r19
     892:	b0 e0       	ldi	r27, 0x00	; 0
     894:	f0 e0       	ldi	r31, 0x00	; 0
     896:	32 96       	adiw	r30, 0x02	; 2
     898:	ea 0f       	add	r30, r26
     89a:	fb 1f       	adc	r31, r27
     89c:	f0 70       	andi	r31, 0x00	; 0
     89e:	e2 56       	subi	r30, 0x62	; 98
     8a0:	fd 4f       	sbci	r31, 0xFD	; 253
     8a2:	80 81       	ld	r24, Z
     8a4:	85 32       	cpi	r24, 0x25	; 37
     8a6:	c9 f4       	brne	.+50     	; 0x8da <__stack+0x7b>
     8a8:	80 91 c3 00 	lds	r24, 0x00C3
     8ac:	a8 0f       	add	r26, r24
     8ae:	b1 1d       	adc	r27, r1
     8b0:	b0 70       	andi	r27, 0x00	; 0
     8b2:	a2 56       	subi	r26, 0x62	; 98
     8b4:	bd 4f       	sbci	r27, 0xFD	; 253
     8b6:	8c 91       	ld	r24, X
     8b8:	3f 5f       	subi	r19, 0xFF	; 255
     8ba:	e0 91 c3 00 	lds	r30, 0x00C3
     8be:	e3 0f       	add	r30, r19
     8c0:	f0 e0       	ldi	r31, 0x00	; 0
     8c2:	e2 56       	subi	r30, 0x62	; 98
     8c4:	fd 4f       	sbci	r31, 0xFD	; 253
     8c6:	20 81       	ld	r18, Z
     8c8:	50 51       	subi	r21, 0x10	; 16
     8ca:	52 0f       	add	r21, r18
     8cc:	81 9f       	mul	r24, r17
     8ce:	c0 01       	movw	r24, r0
     8d0:	11 24       	eor	r1, r1
     8d2:	58 0f       	add	r21, r24
     8d4:	3f 5f       	subi	r19, 0xFF	; 255
     8d6:	50 93 e7 00 	sts	0x00E7, r21
     8da:	3f 5f       	subi	r19, 0xFF	; 255
     8dc:	80 91 c3 00 	lds	r24, 0x00C3
     8e0:	a3 2f       	mov	r26, r19
     8e2:	b0 e0       	ldi	r27, 0x00	; 0
     8e4:	fd 01       	movw	r30, r26
     8e6:	e8 0f       	add	r30, r24
     8e8:	f1 1d       	adc	r31, r1
     8ea:	f0 70       	andi	r31, 0x00	; 0
     8ec:	e2 56       	subi	r30, 0x62	; 98
     8ee:	fd 4f       	sbci	r31, 0xFD	; 253
     8f0:	80 81       	ld	r24, Z
     8f2:	8b 33       	cpi	r24, 0x3B	; 59
     8f4:	b1 f4       	brne	.+44     	; 0x922 <__stack+0xc3>
     8f6:	80 91 c3 00 	lds	r24, 0x00C3
     8fa:	a8 0f       	add	r26, r24
     8fc:	b1 1d       	adc	r27, r1
     8fe:	b0 70       	andi	r27, 0x00	; 0
     900:	a2 56       	subi	r26, 0x62	; 98
     902:	bd 4f       	sbci	r27, 0xFD	; 253
     904:	8c 91       	ld	r24, X
     906:	80 32       	cpi	r24, 0x20	; 32
     908:	41 f4       	brne	.+16     	; 0x91a <__stack+0xbb>
     90a:	80 91 c3 00 	lds	r24, 0x00C3
     90e:	8d 5f       	subi	r24, 0xFD	; 253
     910:	83 0f       	add	r24, r19
     912:	80 93 c3 00 	sts	0x00C3, r24
     916:	30 e0       	ldi	r19, 0x00	; 0
     918:	05 c0       	rjmp	.+10     	; 0x924 <__stack+0xc5>
     91a:	80 91 c3 00 	lds	r24, 0x00C3
     91e:	8e 5f       	subi	r24, 0xFE	; 254
     920:	f7 cf       	rjmp	.-18     	; 0x910 <__stack+0xb1>
     922:	3f 5f       	subi	r19, 0xFF	; 255
     924:	e0 91 c3 00 	lds	r30, 0x00C3
     928:	e3 0f       	add	r30, r19
     92a:	f0 e0       	ldi	r31, 0x00	; 0
     92c:	e2 56       	subi	r30, 0x62	; 98
     92e:	fd 4f       	sbci	r31, 0xFD	; 253
     930:	80 81       	ld	r24, Z
     932:	82 35       	cpi	r24, 0x52	; 82
     934:	09 f0       	breq	.+2      	; 0x938 <__stack+0xd9>
     936:	71 c0       	rjmp	.+226    	; 0xa1a <__stack+0x1bb>
     938:	3f 5f       	subi	r19, 0xFF	; 255
     93a:	e0 91 c3 00 	lds	r30, 0x00C3
     93e:	e3 0f       	add	r30, r19
     940:	f0 e0       	ldi	r31, 0x00	; 0
     942:	e2 56       	subi	r30, 0x62	; 98
     944:	fd 4f       	sbci	r31, 0xFD	; 253
     946:	80 81       	ld	r24, Z
     948:	85 34       	cpi	r24, 0x45	; 69
     94a:	09 f0       	breq	.+2      	; 0x94e <__stack+0xef>
     94c:	66 c0       	rjmp	.+204    	; 0xa1a <__stack+0x1bb>
     94e:	3f 5f       	subi	r19, 0xFF	; 255
     950:	e0 91 c3 00 	lds	r30, 0x00C3
     954:	e3 0f       	add	r30, r19
     956:	f0 e0       	ldi	r31, 0x00	; 0
     958:	e2 56       	subi	r30, 0x62	; 98
     95a:	fd 4f       	sbci	r31, 0xFD	; 253
     95c:	90 81       	ld	r25, Z
     95e:	89 2f       	mov	r24, r25
     960:	81 53       	subi	r24, 0x31	; 49
     962:	84 30       	cpi	r24, 0x04	; 4
     964:	08 f0       	brcs	.+2      	; 0x968 <__stack+0x109>
     966:	59 c0       	rjmp	.+178    	; 0xa1a <__stack+0x1bb>
     968:	3f 5f       	subi	r19, 0xFF	; 255
     96a:	e0 91 c3 00 	lds	r30, 0x00C3
     96e:	e3 0f       	add	r30, r19
     970:	f0 e0       	ldi	r31, 0x00	; 0
     972:	e2 56       	subi	r30, 0x62	; 98
     974:	fd 4f       	sbci	r31, 0xFD	; 253
     976:	80 81       	ld	r24, Z
     978:	8d 33       	cpi	r24, 0x3D	; 61
     97a:	09 f0       	breq	.+2      	; 0x97e <__stack+0x11f>
     97c:	4e c0       	rjmp	.+156    	; 0xa1a <__stack+0x1bb>
     97e:	9d 52       	subi	r25, 0x2D	; 45
     980:	3f 5f       	subi	r19, 0xFF	; 255
     982:	80 91 c3 00 	lds	r24, 0x00C3
     986:	a3 2f       	mov	r26, r19
     988:	b0 e0       	ldi	r27, 0x00	; 0
     98a:	fd 01       	movw	r30, r26
     98c:	e8 0f       	add	r30, r24
     98e:	f1 1d       	adc	r31, r1
     990:	f0 70       	andi	r31, 0x00	; 0
     992:	e2 56       	subi	r30, 0x62	; 98
     994:	fd 4f       	sbci	r31, 0xFD	; 253
     996:	80 81       	ld	r24, Z
     998:	81 33       	cpi	r24, 0x31	; 49
     99a:	41 f4       	brne	.+16     	; 0x9ac <__stack+0x14d>
     99c:	fb 01       	movw	r30, r22
     99e:	02 c0       	rjmp	.+4      	; 0x9a4 <__stack+0x145>
     9a0:	ee 0f       	add	r30, r30
     9a2:	ff 1f       	adc	r31, r31
     9a4:	9a 95       	dec	r25
     9a6:	e2 f7       	brpl	.-8      	; 0x9a0 <__stack+0x141>
     9a8:	4e 2b       	or	r20, r30
     9aa:	13 c0       	rjmp	.+38     	; 0x9d2 <__stack+0x173>
     9ac:	80 91 c3 00 	lds	r24, 0x00C3
     9b0:	a8 0f       	add	r26, r24
     9b2:	b1 1d       	adc	r27, r1
     9b4:	b0 70       	andi	r27, 0x00	; 0
     9b6:	a2 56       	subi	r26, 0x62	; 98
     9b8:	bd 4f       	sbci	r27, 0xFD	; 253
     9ba:	8c 91       	ld	r24, X
     9bc:	80 33       	cpi	r24, 0x30	; 48
     9be:	49 f4       	brne	.+18     	; 0x9d2 <__stack+0x173>
     9c0:	fb 01       	movw	r30, r22
     9c2:	02 c0       	rjmp	.+4      	; 0x9c8 <__stack+0x169>
     9c4:	ee 0f       	add	r30, r30
     9c6:	ff 1f       	adc	r31, r31
     9c8:	9a 95       	dec	r25
     9ca:	e2 f7       	brpl	.-8      	; 0x9c4 <__stack+0x165>
     9cc:	cf 01       	movw	r24, r30
     9ce:	80 95       	com	r24
     9d0:	48 23       	and	r20, r24
     9d2:	3f 5f       	subi	r19, 0xFF	; 255
     9d4:	80 91 c3 00 	lds	r24, 0x00C3
     9d8:	a3 2f       	mov	r26, r19
     9da:	b0 e0       	ldi	r27, 0x00	; 0
     9dc:	fd 01       	movw	r30, r26
     9de:	e8 0f       	add	r30, r24
     9e0:	f1 1d       	adc	r31, r1
     9e2:	f0 70       	andi	r31, 0x00	; 0
     9e4:	e2 56       	subi	r30, 0x62	; 98
     9e6:	fd 4f       	sbci	r31, 0xFD	; 253
     9e8:	80 81       	ld	r24, Z
     9ea:	8b 33       	cpi	r24, 0x3B	; 59
     9ec:	a9 f4       	brne	.+42     	; 0xa18 <__stack+0x1b9>
     9ee:	80 91 c3 00 	lds	r24, 0x00C3
     9f2:	a8 0f       	add	r26, r24
     9f4:	b1 1d       	adc	r27, r1
     9f6:	b0 70       	andi	r27, 0x00	; 0
     9f8:	a2 56       	subi	r26, 0x62	; 98
     9fa:	bd 4f       	sbci	r27, 0xFD	; 253
     9fc:	8c 91       	ld	r24, X
     9fe:	80 32       	cpi	r24, 0x20	; 32
     a00:	21 f4       	brne	.+8      	; 0xa0a <__stack+0x1ab>
     a02:	80 91 c3 00 	lds	r24, 0x00C3
     a06:	8d 5f       	subi	r24, 0xFD	; 253
     a08:	03 c0       	rjmp	.+6      	; 0xa10 <__stack+0x1b1>
     a0a:	80 91 c3 00 	lds	r24, 0x00C3
     a0e:	8e 5f       	subi	r24, 0xFE	; 254
     a10:	83 0f       	add	r24, r19
     a12:	80 93 c3 00 	sts	0x00C3, r24
     a16:	04 c0       	rjmp	.+8      	; 0xa20 <__stack+0x1c1>
     a18:	3f 5f       	subi	r19, 0xFF	; 255
     a1a:	33 23       	and	r19, r19
     a1c:	09 f0       	breq	.+2      	; 0xa20 <__stack+0x1c1>
     a1e:	ad ce       	rjmp	.-678    	; 0x77a <sms_analyze+0x92>
     a20:	4f b9       	out	0x0f, r20	; 15
     a22:	89 e9       	ldi	r24, 0x99	; 153
     a24:	95 e1       	ldi	r25, 0x15	; 21
     a26:	01 97       	sbiw	r24, 0x01	; 1
     a28:	f1 f7       	brne	.-4      	; 0xa26 <__stack+0x1c7>
     a2a:	92 9a       	sbi	0x12, 2	; 18
     a2c:	92 98       	cbi	0x12, 2	; 18
     a2e:	80 91 63 02 	lds	r24, 0x0263
     a32:	80 93 c3 00 	sts	0x00C3, r24
     a36:	20 91 d0 00 	lds	r18, 0x00D0
     a3a:	aa e2       	ldi	r26, 0x2A	; 42
     a3c:	b1 e0       	ldi	r27, 0x01	; 1
     a3e:	82 2f       	mov	r24, r18
     a40:	90 91 d1 00 	lds	r25, 0x00D1
     a44:	fc 01       	movw	r30, r24
     a46:	6e 2f       	mov	r22, r30
     a48:	62 1b       	sub	r22, r18
     a4a:	84 91       	lpm	r24, Z+
     a4c:	31 96       	adiw	r30, 0x01	; 1
     a4e:	8f 32       	cpi	r24, 0x2F	; 47
     a50:	11 f4       	brne	.+4      	; 0xa56 <__stack+0x1f7>
     a52:	01 e0       	ldi	r16, 0x01	; 1
     a54:	04 c0       	rjmp	.+8      	; 0xa5e <__stack+0x1ff>
     a56:	8d 93       	st	X+, r24
     a58:	f6 cf       	rjmp	.-20     	; 0xa46 <__stack+0x1e7>
     a5a:	60 e0       	ldi	r22, 0x00	; 0
     a5c:	00 e0       	ldi	r16, 0x00	; 0
     a5e:	e0 91 c3 00 	lds	r30, 0x00C3
     a62:	ef 5f       	subi	r30, 0xFF	; 255
     a64:	f0 e0       	ldi	r31, 0x00	; 0
     a66:	e2 56       	subi	r30, 0x62	; 98
     a68:	fd 4f       	sbci	r31, 0xFD	; 253
     a6a:	90 81       	ld	r25, Z
     a6c:	20 91 ca 00 	lds	r18, 0x00CA
     a70:	30 91 cb 00 	lds	r19, 0x00CB
     a74:	f9 01       	movw	r30, r18
     a76:	84 91       	lpm	r24, Z+
     a78:	98 17       	cp	r25, r24
     a7a:	09 f0       	breq	.+2      	; 0xa7e <__stack+0x21f>
     a7c:	12 c1       	rjmp	.+548    	; 0xca2 <__stack+0x443>
     a7e:	84 ef       	ldi	r24, 0xF4	; 244
     a80:	91 e0       	ldi	r25, 0x01	; 1
     a82:	44 e1       	ldi	r20, 0x14	; 20
     a84:	51 e0       	ldi	r21, 0x01	; 1
     a86:	fa 01       	movw	r30, r20
     a88:	31 97       	sbiw	r30, 0x01	; 1
     a8a:	f1 f7       	brne	.-4      	; 0xa88 <__stack+0x229>
     a8c:	01 97       	sbiw	r24, 0x01	; 1
     a8e:	d9 f7       	brne	.-10     	; 0xa86 <__stack+0x227>
     a90:	80 91 c3 00 	lds	r24, 0x00C3
     a94:	8f 5f       	subi	r24, 0xFF	; 255
     a96:	80 93 c3 00 	sts	0x00C3, r24
     a9a:	41 e0       	ldi	r20, 0x01	; 1
     a9c:	50 e0       	ldi	r21, 0x00	; 0
     a9e:	80 91 c3 00 	lds	r24, 0x00C3
     aa2:	fa 01       	movw	r30, r20
     aa4:	e8 0f       	add	r30, r24
     aa6:	f1 1d       	adc	r31, r1
     aa8:	f0 70       	andi	r31, 0x00	; 0
     aaa:	e2 56       	subi	r30, 0x62	; 98
     aac:	fd 4f       	sbci	r31, 0xFD	; 253
     aae:	80 81       	ld	r24, Z
     ab0:	f9 01       	movw	r30, r18
     ab2:	e4 0f       	add	r30, r20
     ab4:	f5 1f       	adc	r31, r21
     ab6:	e4 91       	lpm	r30, Z+
     ab8:	8e 17       	cp	r24, r30
     aba:	09 f0       	breq	.+2      	; 0xabe <__stack+0x25f>
     abc:	f2 c0       	rjmp	.+484    	; 0xca2 <__stack+0x443>
     abe:	43 30       	cpi	r20, 0x03	; 3
     ac0:	51 05       	cpc	r21, r1
     ac2:	29 f4       	brne	.+10     	; 0xace <__stack+0x26f>
     ac4:	80 91 c3 00 	lds	r24, 0x00C3
     ac8:	8d 5f       	subi	r24, 0xFD	; 253
     aca:	80 93 c3 00 	sts	0x00C3, r24
     ace:	e0 91 c3 00 	lds	r30, 0x00C3
     ad2:	ef 5f       	subi	r30, 0xFF	; 255
     ad4:	f0 e0       	ldi	r31, 0x00	; 0
     ad6:	e2 56       	subi	r30, 0x62	; 98
     ad8:	fd 4f       	sbci	r31, 0xFD	; 253
     ada:	80 81       	ld	r24, Z
     adc:	80 32       	cpi	r24, 0x20	; 32
     ade:	29 f4       	brne	.+10     	; 0xaea <__stack+0x28b>
     ae0:	80 91 c3 00 	lds	r24, 0x00C3
     ae4:	8f 5f       	subi	r24, 0xFF	; 255
     ae6:	80 93 c3 00 	sts	0x00C3, r24
     aea:	e0 91 c3 00 	lds	r30, 0x00C3
     aee:	ef 5f       	subi	r30, 0xFF	; 255
     af0:	f0 e0       	ldi	r31, 0x00	; 0
     af2:	e2 56       	subi	r30, 0x62	; 98
     af4:	fd 4f       	sbci	r31, 0xFD	; 253
     af6:	80 81       	ld	r24, Z
     af8:	8d 30       	cpi	r24, 0x0D	; 13
     afa:	29 f4       	brne	.+10     	; 0xb06 <__stack+0x2a7>
     afc:	80 91 c3 00 	lds	r24, 0x00C3
     b00:	8e 5f       	subi	r24, 0xFE	; 254
     b02:	80 93 c3 00 	sts	0x00C3, r24
     b06:	4f 5f       	subi	r20, 0xFF	; 255
     b08:	5f 4f       	sbci	r21, 0xFF	; 255
     b0a:	44 30       	cpi	r20, 0x04	; 4
     b0c:	51 05       	cpc	r21, r1
     b0e:	39 f6       	brne	.-114    	; 0xa9e <__stack+0x23f>
     b10:	03 c2       	rjmp	.+1030   	; 0xf18 <__stack+0x6b9>
     b12:	80 91 2c 01 	lds	r24, 0x012C
     b16:	8e 32       	cpi	r24, 0x2E	; 46
     b18:	31 f0       	breq	.+12     	; 0xb26 <__stack+0x2c7>
     b1a:	8e e2       	ldi	r24, 0x2E	; 46
     b1c:	80 93 2c 01 	sts	0x012C, r24
     b20:	61 30       	cpi	r22, 0x01	; 1
     b22:	09 f4       	brne	.+2      	; 0xb26 <__stack+0x2c7>
     b24:	62 e0       	ldi	r22, 0x02	; 2
     b26:	40 91 d4 00 	lds	r20, 0x00D4
     b2a:	50 91 d5 00 	lds	r21, 0x00D5
     b2e:	a6 2f       	mov	r26, r22
     b30:	b0 e0       	ldi	r27, 0x00	; 0
     b32:	a6 5d       	subi	r26, 0xD6	; 214
     b34:	be 4f       	sbci	r27, 0xFE	; 254
     b36:	20 e0       	ldi	r18, 0x00	; 0
     b38:	30 e0       	ldi	r19, 0x00	; 0
     b3a:	fa 01       	movw	r30, r20
     b3c:	e2 0f       	add	r30, r18
     b3e:	f3 1f       	adc	r31, r19
     b40:	84 91       	lpm	r24, Z+
     b42:	8f 32       	cpi	r24, 0x2F	; 47
     b44:	d9 f5       	brne	.+118    	; 0xbbc <__stack+0x35d>
     b46:	36 2f       	mov	r19, r22
     b48:	32 0f       	add	r19, r18
     b4a:	40 91 b7 00 	lds	r20, 0x00B7
     b4e:	e3 2f       	mov	r30, r19
     b50:	f0 e0       	ldi	r31, 0x00	; 0
     b52:	e6 5d       	subi	r30, 0xD6	; 214
     b54:	fe 4f       	sbci	r31, 0xFE	; 254
     b56:	84 2f       	mov	r24, r20
     b58:	6a e0       	ldi	r22, 0x0A	; 10
     b5a:	0e 94 7f 0d 	call	0x1afe	; 0x1afe <__udivmodqi4>
     b5e:	80 5d       	subi	r24, 0xD0	; 208
     b60:	80 83       	st	Z, r24
     b62:	23 2f       	mov	r18, r19
     b64:	2f 5f       	subi	r18, 0xFF	; 255
     b66:	e2 2f       	mov	r30, r18
     b68:	f0 e0       	ldi	r31, 0x00	; 0
     b6a:	e6 5d       	subi	r30, 0xD6	; 214
     b6c:	fe 4f       	sbci	r31, 0xFE	; 254
     b6e:	84 2f       	mov	r24, r20
     b70:	0e 94 7f 0d 	call	0x1afe	; 0x1afe <__udivmodqi4>
     b74:	90 5d       	subi	r25, 0xD0	; 208
     b76:	90 83       	st	Z, r25
     b78:	2f 5f       	subi	r18, 0xFF	; 255
     b7a:	e2 2f       	mov	r30, r18
     b7c:	f0 e0       	ldi	r31, 0x00	; 0
     b7e:	e6 5d       	subi	r30, 0xD6	; 214
     b80:	fe 4f       	sbci	r31, 0xFE	; 254
     b82:	8a e2       	ldi	r24, 0x2A	; 42
     b84:	80 83       	st	Z, r24
     b86:	2f 5f       	subi	r18, 0xFF	; 255
     b88:	e2 2f       	mov	r30, r18
     b8a:	f0 e0       	ldi	r31, 0x00	; 0
     b8c:	e6 5d       	subi	r30, 0xD6	; 214
     b8e:	fe 4f       	sbci	r31, 0xFE	; 254
     b90:	83 e4       	ldi	r24, 0x43	; 67
     b92:	80 83       	st	Z, r24
     b94:	2f 5f       	subi	r18, 0xFF	; 255
     b96:	e2 2f       	mov	r30, r18
     b98:	f0 e0       	ldi	r31, 0x00	; 0
     b9a:	e6 5d       	subi	r30, 0xD6	; 214
     b9c:	fe 4f       	sbci	r31, 0xFE	; 254
     b9e:	8c e2       	ldi	r24, 0x2C	; 44
     ba0:	80 83       	st	Z, r24
     ba2:	2f 5f       	subi	r18, 0xFF	; 255
     ba4:	40 91 d6 00 	lds	r20, 0x00D6
     ba8:	50 91 d7 00 	lds	r21, 0x00D7
     bac:	3b 5f       	subi	r19, 0xFB	; 251
     bae:	a3 2f       	mov	r26, r19
     bb0:	b0 e0       	ldi	r27, 0x00	; 0
     bb2:	a6 5d       	subi	r26, 0xD6	; 214
     bb4:	be 4f       	sbci	r27, 0xFE	; 254
     bb6:	80 e0       	ldi	r24, 0x00	; 0
     bb8:	90 e0       	ldi	r25, 0x00	; 0
     bba:	04 c0       	rjmp	.+8      	; 0xbc4 <__stack+0x365>
     bbc:	8d 93       	st	X+, r24
     bbe:	2f 5f       	subi	r18, 0xFF	; 255
     bc0:	3f 4f       	sbci	r19, 0xFF	; 255
     bc2:	bb cf       	rjmp	.-138    	; 0xb3a <__stack+0x2db>
     bc4:	fa 01       	movw	r30, r20
     bc6:	e8 0f       	add	r30, r24
     bc8:	f9 1f       	adc	r31, r25
     bca:	34 91       	lpm	r19, Z+
     bcc:	3f 32       	cpi	r19, 0x2F	; 47
     bce:	a1 f5       	brne	.+104    	; 0xc38 <__stack+0x3d9>
     bd0:	32 2f       	mov	r19, r18
     bd2:	38 0f       	add	r19, r24
     bd4:	40 91 b8 00 	lds	r20, 0x00B8
     bd8:	e3 2f       	mov	r30, r19
     bda:	f0 e0       	ldi	r31, 0x00	; 0
     bdc:	e6 5d       	subi	r30, 0xD6	; 214
     bde:	fe 4f       	sbci	r31, 0xFE	; 254
     be0:	84 2f       	mov	r24, r20
     be2:	6a e0       	ldi	r22, 0x0A	; 10
     be4:	0e 94 7f 0d 	call	0x1afe	; 0x1afe <__udivmodqi4>
     be8:	80 5d       	subi	r24, 0xD0	; 208
     bea:	80 83       	st	Z, r24
     bec:	23 2f       	mov	r18, r19
     bee:	2f 5f       	subi	r18, 0xFF	; 255
     bf0:	e2 2f       	mov	r30, r18
     bf2:	f0 e0       	ldi	r31, 0x00	; 0
     bf4:	e6 5d       	subi	r30, 0xD6	; 214
     bf6:	fe 4f       	sbci	r31, 0xFE	; 254
     bf8:	84 2f       	mov	r24, r20
     bfa:	0e 94 7f 0d 	call	0x1afe	; 0x1afe <__udivmodqi4>
     bfe:	90 5d       	subi	r25, 0xD0	; 208
     c00:	90 83       	st	Z, r25
     c02:	2f 5f       	subi	r18, 0xFF	; 255
     c04:	e2 2f       	mov	r30, r18
     c06:	f0 e0       	ldi	r31, 0x00	; 0
     c08:	e6 5d       	subi	r30, 0xD6	; 214
     c0a:	fe 4f       	sbci	r31, 0xFE	; 254
     c0c:	85 e2       	ldi	r24, 0x25	; 37
     c0e:	80 83       	st	Z, r24
     c10:	2f 5f       	subi	r18, 0xFF	; 255
     c12:	e2 2f       	mov	r30, r18
     c14:	f0 e0       	ldi	r31, 0x00	; 0
     c16:	e6 5d       	subi	r30, 0xD6	; 214
     c18:	fe 4f       	sbci	r31, 0xFE	; 254
     c1a:	8c e2       	ldi	r24, 0x2C	; 44
     c1c:	80 83       	st	Z, r24
     c1e:	2f 5f       	subi	r18, 0xFF	; 255
     c20:	40 91 d8 00 	lds	r20, 0x00D8
     c24:	50 91 d9 00 	lds	r21, 0x00D9
     c28:	3c 5f       	subi	r19, 0xFC	; 252
     c2a:	a3 2f       	mov	r26, r19
     c2c:	b0 e0       	ldi	r27, 0x00	; 0
     c2e:	a6 5d       	subi	r26, 0xD6	; 214
     c30:	be 4f       	sbci	r27, 0xFE	; 254
     c32:	80 e0       	ldi	r24, 0x00	; 0
     c34:	90 e0       	ldi	r25, 0x00	; 0
     c36:	03 c0       	rjmp	.+6      	; 0xc3e <__stack+0x3df>
     c38:	3d 93       	st	X+, r19
     c3a:	01 96       	adiw	r24, 0x01	; 1
     c3c:	c3 cf       	rjmp	.-122    	; 0xbc4 <__stack+0x365>
     c3e:	fa 01       	movw	r30, r20
     c40:	e8 0f       	add	r30, r24
     c42:	f9 1f       	adc	r31, r25
     c44:	34 91       	lpm	r19, Z+
     c46:	3f 32       	cpi	r19, 0x2F	; 47
     c48:	49 f5       	brne	.+82     	; 0xc9c <__stack+0x43d>
     c4a:	28 0f       	add	r18, r24
     c4c:	30 91 bc 00 	lds	r19, 0x00BC
     c50:	e2 2f       	mov	r30, r18
     c52:	f0 e0       	ldi	r31, 0x00	; 0
     c54:	e6 5d       	subi	r30, 0xD6	; 214
     c56:	fe 4f       	sbci	r31, 0xFE	; 254
     c58:	83 2f       	mov	r24, r19
     c5a:	6a e0       	ldi	r22, 0x0A	; 10
     c5c:	0e 94 7f 0d 	call	0x1afe	; 0x1afe <__udivmodqi4>
     c60:	80 5d       	subi	r24, 0xD0	; 208
     c62:	80 83       	st	Z, r24
     c64:	2f 5f       	subi	r18, 0xFF	; 255
     c66:	e2 2f       	mov	r30, r18
     c68:	f0 e0       	ldi	r31, 0x00	; 0
     c6a:	e6 5d       	subi	r30, 0xD6	; 214
     c6c:	fe 4f       	sbci	r31, 0xFE	; 254
     c6e:	83 2f       	mov	r24, r19
     c70:	0e 94 7f 0d 	call	0x1afe	; 0x1afe <__udivmodqi4>
     c74:	90 5d       	subi	r25, 0xD0	; 208
     c76:	90 83       	st	Z, r25
     c78:	2f 5f       	subi	r18, 0xFF	; 255
     c7a:	e2 2f       	mov	r30, r18
     c7c:	f0 e0       	ldi	r31, 0x00	; 0
     c7e:	e6 5d       	subi	r30, 0xD6	; 214
     c80:	fe 4f       	sbci	r31, 0xFE	; 254
     c82:	85 e2       	ldi	r24, 0x25	; 37
     c84:	80 83       	st	Z, r24
     c86:	2f 5f       	subi	r18, 0xFF	; 255
     c88:	e2 2f       	mov	r30, r18
     c8a:	f0 e0       	ldi	r31, 0x00	; 0
     c8c:	e6 5d       	subi	r30, 0xD6	; 214
     c8e:	fe 4f       	sbci	r31, 0xFE	; 254
     c90:	8b e3       	ldi	r24, 0x3B	; 59
     c92:	80 83       	st	Z, r24
     c94:	62 2f       	mov	r22, r18
     c96:	6f 5f       	subi	r22, 0xFF	; 255
     c98:	11 e0       	ldi	r17, 0x01	; 1
     c9a:	04 c0       	rjmp	.+8      	; 0xca4 <__stack+0x445>
     c9c:	3d 93       	st	X+, r19
     c9e:	01 96       	adiw	r24, 0x01	; 1
     ca0:	ce cf       	rjmp	.-100    	; 0xc3e <__stack+0x3df>
     ca2:	10 e0       	ldi	r17, 0x00	; 0
     ca4:	e0 91 c3 00 	lds	r30, 0x00C3
     ca8:	ef 5f       	subi	r30, 0xFF	; 255
     caa:	f0 e0       	ldi	r31, 0x00	; 0
     cac:	e2 56       	subi	r30, 0x62	; 98
     cae:	fd 4f       	sbci	r31, 0xFD	; 253
     cb0:	90 81       	ld	r25, Z
     cb2:	20 91 cc 00 	lds	r18, 0x00CC
     cb6:	30 91 cd 00 	lds	r19, 0x00CD
     cba:	f9 01       	movw	r30, r18
     cbc:	84 91       	lpm	r24, Z+
     cbe:	98 17       	cp	r25, r24
     cc0:	09 f0       	breq	.+2      	; 0xcc4 <__stack+0x465>
     cc2:	12 c1       	rjmp	.+548    	; 0xee8 <__stack+0x689>
     cc4:	84 ef       	ldi	r24, 0xF4	; 244
     cc6:	91 e0       	ldi	r25, 0x01	; 1
     cc8:	44 e1       	ldi	r20, 0x14	; 20
     cca:	51 e0       	ldi	r21, 0x01	; 1
     ccc:	fa 01       	movw	r30, r20
     cce:	31 97       	sbiw	r30, 0x01	; 1
     cd0:	f1 f7       	brne	.-4      	; 0xcce <__stack+0x46f>
     cd2:	01 97       	sbiw	r24, 0x01	; 1
     cd4:	d9 f7       	brne	.-10     	; 0xccc <__stack+0x46d>
     cd6:	80 91 c3 00 	lds	r24, 0x00C3
     cda:	8f 5f       	subi	r24, 0xFF	; 255
     cdc:	80 93 c3 00 	sts	0x00C3, r24
     ce0:	41 e0       	ldi	r20, 0x01	; 1
     ce2:	50 e0       	ldi	r21, 0x00	; 0
     ce4:	80 91 c3 00 	lds	r24, 0x00C3
     ce8:	fa 01       	movw	r30, r20
     cea:	e8 0f       	add	r30, r24
     cec:	f1 1d       	adc	r31, r1
     cee:	f0 70       	andi	r31, 0x00	; 0
     cf0:	e2 56       	subi	r30, 0x62	; 98
     cf2:	fd 4f       	sbci	r31, 0xFD	; 253
     cf4:	80 81       	ld	r24, Z
     cf6:	f9 01       	movw	r30, r18
     cf8:	e4 0f       	add	r30, r20
     cfa:	f5 1f       	adc	r31, r21
     cfc:	e4 91       	lpm	r30, Z+
     cfe:	8e 17       	cp	r24, r30
     d00:	09 f0       	breq	.+2      	; 0xd04 <__stack+0x4a5>
     d02:	f2 c0       	rjmp	.+484    	; 0xee8 <__stack+0x689>
     d04:	43 30       	cpi	r20, 0x03	; 3
     d06:	51 05       	cpc	r21, r1
     d08:	29 f4       	brne	.+10     	; 0xd14 <__stack+0x4b5>
     d0a:	80 91 c3 00 	lds	r24, 0x00C3
     d0e:	8d 5f       	subi	r24, 0xFD	; 253
     d10:	80 93 c3 00 	sts	0x00C3, r24
     d14:	e0 91 c3 00 	lds	r30, 0x00C3
     d18:	ef 5f       	subi	r30, 0xFF	; 255
     d1a:	f0 e0       	ldi	r31, 0x00	; 0
     d1c:	e2 56       	subi	r30, 0x62	; 98
     d1e:	fd 4f       	sbci	r31, 0xFD	; 253
     d20:	80 81       	ld	r24, Z
     d22:	80 32       	cpi	r24, 0x20	; 32
     d24:	29 f4       	brne	.+10     	; 0xd30 <__stack+0x4d1>
     d26:	80 91 c3 00 	lds	r24, 0x00C3
     d2a:	8f 5f       	subi	r24, 0xFF	; 255
     d2c:	80 93 c3 00 	sts	0x00C3, r24
     d30:	e0 91 c3 00 	lds	r30, 0x00C3
     d34:	ef 5f       	subi	r30, 0xFF	; 255
     d36:	f0 e0       	ldi	r31, 0x00	; 0
     d38:	e2 56       	subi	r30, 0x62	; 98
     d3a:	fd 4f       	sbci	r31, 0xFD	; 253
     d3c:	80 81       	ld	r24, Z
     d3e:	8d 30       	cpi	r24, 0x0D	; 13
     d40:	29 f4       	brne	.+10     	; 0xd4c <__stack+0x4ed>
     d42:	80 91 c3 00 	lds	r24, 0x00C3
     d46:	8e 5f       	subi	r24, 0xFE	; 254
     d48:	80 93 c3 00 	sts	0x00C3, r24
     d4c:	4f 5f       	subi	r20, 0xFF	; 255
     d4e:	5f 4f       	sbci	r21, 0xFF	; 255
     d50:	44 30       	cpi	r20, 0x04	; 4
     d52:	51 05       	cpc	r21, r1
     d54:	39 f6       	brne	.-114    	; 0xce4 <__stack+0x485>
     d56:	e6 c0       	rjmp	.+460    	; 0xf24 <__stack+0x6c5>
     d58:	80 91 2c 01 	lds	r24, 0x012C
     d5c:	8e 32       	cpi	r24, 0x2E	; 46
     d5e:	31 f0       	breq	.+12     	; 0xd6c <__stack+0x50d>
     d60:	8e e2       	ldi	r24, 0x2E	; 46
     d62:	80 93 2c 01 	sts	0x012C, r24
     d66:	61 30       	cpi	r22, 0x01	; 1
     d68:	09 f4       	brne	.+2      	; 0xd6c <__stack+0x50d>
     d6a:	62 e0       	ldi	r22, 0x02	; 2
     d6c:	40 91 da 00 	lds	r20, 0x00DA
     d70:	50 91 db 00 	lds	r21, 0x00DB
     d74:	a6 2f       	mov	r26, r22
     d76:	b0 e0       	ldi	r27, 0x00	; 0
     d78:	a6 5d       	subi	r26, 0xD6	; 214
     d7a:	be 4f       	sbci	r27, 0xFE	; 254
     d7c:	20 e0       	ldi	r18, 0x00	; 0
     d7e:	30 e0       	ldi	r19, 0x00	; 0
     d80:	fa 01       	movw	r30, r20
     d82:	e2 0f       	add	r30, r18
     d84:	f3 1f       	adc	r31, r19
     d86:	84 91       	lpm	r24, Z+
     d88:	8f 32       	cpi	r24, 0x2F	; 47
     d8a:	d9 f5       	brne	.+118    	; 0xe02 <__stack+0x5a3>
     d8c:	36 2f       	mov	r19, r22
     d8e:	32 0f       	add	r19, r18
     d90:	40 91 b9 00 	lds	r20, 0x00B9
     d94:	e3 2f       	mov	r30, r19
     d96:	f0 e0       	ldi	r31, 0x00	; 0
     d98:	e6 5d       	subi	r30, 0xD6	; 214
     d9a:	fe 4f       	sbci	r31, 0xFE	; 254
     d9c:	84 2f       	mov	r24, r20
     d9e:	6a e0       	ldi	r22, 0x0A	; 10
     da0:	0e 94 7f 0d 	call	0x1afe	; 0x1afe <__udivmodqi4>
     da4:	80 5d       	subi	r24, 0xD0	; 208
     da6:	80 83       	st	Z, r24
     da8:	23 2f       	mov	r18, r19
     daa:	2f 5f       	subi	r18, 0xFF	; 255
     dac:	e2 2f       	mov	r30, r18
     dae:	f0 e0       	ldi	r31, 0x00	; 0
     db0:	e6 5d       	subi	r30, 0xD6	; 214
     db2:	fe 4f       	sbci	r31, 0xFE	; 254
     db4:	84 2f       	mov	r24, r20
     db6:	0e 94 7f 0d 	call	0x1afe	; 0x1afe <__udivmodqi4>
     dba:	90 5d       	subi	r25, 0xD0	; 208
     dbc:	90 83       	st	Z, r25
     dbe:	2f 5f       	subi	r18, 0xFF	; 255
     dc0:	e2 2f       	mov	r30, r18
     dc2:	f0 e0       	ldi	r31, 0x00	; 0
     dc4:	e6 5d       	subi	r30, 0xD6	; 214
     dc6:	fe 4f       	sbci	r31, 0xFE	; 254
     dc8:	8a e2       	ldi	r24, 0x2A	; 42
     dca:	80 83       	st	Z, r24
     dcc:	2f 5f       	subi	r18, 0xFF	; 255
     dce:	e2 2f       	mov	r30, r18
     dd0:	f0 e0       	ldi	r31, 0x00	; 0
     dd2:	e6 5d       	subi	r30, 0xD6	; 214
     dd4:	fe 4f       	sbci	r31, 0xFE	; 254
     dd6:	83 e4       	ldi	r24, 0x43	; 67
     dd8:	80 83       	st	Z, r24
     dda:	2f 5f       	subi	r18, 0xFF	; 255
     ddc:	e2 2f       	mov	r30, r18
     dde:	f0 e0       	ldi	r31, 0x00	; 0
     de0:	e6 5d       	subi	r30, 0xD6	; 214
     de2:	fe 4f       	sbci	r31, 0xFE	; 254
     de4:	8c e2       	ldi	r24, 0x2C	; 44
     de6:	80 83       	st	Z, r24
     de8:	2f 5f       	subi	r18, 0xFF	; 255
     dea:	40 91 dc 00 	lds	r20, 0x00DC
     dee:	50 91 dd 00 	lds	r21, 0x00DD
     df2:	3b 5f       	subi	r19, 0xFB	; 251
     df4:	a3 2f       	mov	r26, r19
     df6:	b0 e0       	ldi	r27, 0x00	; 0
     df8:	a6 5d       	subi	r26, 0xD6	; 214
     dfa:	be 4f       	sbci	r27, 0xFE	; 254
     dfc:	80 e0       	ldi	r24, 0x00	; 0
     dfe:	90 e0       	ldi	r25, 0x00	; 0
     e00:	04 c0       	rjmp	.+8      	; 0xe0a <__stack+0x5ab>
     e02:	8d 93       	st	X+, r24
     e04:	2f 5f       	subi	r18, 0xFF	; 255
     e06:	3f 4f       	sbci	r19, 0xFF	; 255
     e08:	bb cf       	rjmp	.-138    	; 0xd80 <__stack+0x521>
     e0a:	fa 01       	movw	r30, r20
     e0c:	e8 0f       	add	r30, r24
     e0e:	f9 1f       	adc	r31, r25
     e10:	34 91       	lpm	r19, Z+
     e12:	3f 32       	cpi	r19, 0x2F	; 47
     e14:	a1 f5       	brne	.+104    	; 0xe7e <__stack+0x61f>
     e16:	32 2f       	mov	r19, r18
     e18:	38 0f       	add	r19, r24
     e1a:	40 91 ba 00 	lds	r20, 0x00BA
     e1e:	e3 2f       	mov	r30, r19
     e20:	f0 e0       	ldi	r31, 0x00	; 0
     e22:	e6 5d       	subi	r30, 0xD6	; 214
     e24:	fe 4f       	sbci	r31, 0xFE	; 254
     e26:	84 2f       	mov	r24, r20
     e28:	6a e0       	ldi	r22, 0x0A	; 10
     e2a:	0e 94 7f 0d 	call	0x1afe	; 0x1afe <__udivmodqi4>
     e2e:	80 5d       	subi	r24, 0xD0	; 208
     e30:	80 83       	st	Z, r24
     e32:	23 2f       	mov	r18, r19
     e34:	2f 5f       	subi	r18, 0xFF	; 255
     e36:	e2 2f       	mov	r30, r18
     e38:	f0 e0       	ldi	r31, 0x00	; 0
     e3a:	e6 5d       	subi	r30, 0xD6	; 214
     e3c:	fe 4f       	sbci	r31, 0xFE	; 254
     e3e:	84 2f       	mov	r24, r20
     e40:	0e 94 7f 0d 	call	0x1afe	; 0x1afe <__udivmodqi4>
     e44:	90 5d       	subi	r25, 0xD0	; 208
     e46:	90 83       	st	Z, r25
     e48:	2f 5f       	subi	r18, 0xFF	; 255
     e4a:	e2 2f       	mov	r30, r18
     e4c:	f0 e0       	ldi	r31, 0x00	; 0
     e4e:	e6 5d       	subi	r30, 0xD6	; 214
     e50:	fe 4f       	sbci	r31, 0xFE	; 254
     e52:	85 e2       	ldi	r24, 0x25	; 37
     e54:	80 83       	st	Z, r24
     e56:	2f 5f       	subi	r18, 0xFF	; 255
     e58:	e2 2f       	mov	r30, r18
     e5a:	f0 e0       	ldi	r31, 0x00	; 0
     e5c:	e6 5d       	subi	r30, 0xD6	; 214
     e5e:	fe 4f       	sbci	r31, 0xFE	; 254
     e60:	8c e2       	ldi	r24, 0x2C	; 44
     e62:	80 83       	st	Z, r24
     e64:	2f 5f       	subi	r18, 0xFF	; 255
     e66:	40 91 de 00 	lds	r20, 0x00DE
     e6a:	50 91 df 00 	lds	r21, 0x00DF
     e6e:	3c 5f       	subi	r19, 0xFC	; 252
     e70:	a3 2f       	mov	r26, r19
     e72:	b0 e0       	ldi	r27, 0x00	; 0
     e74:	a6 5d       	subi	r26, 0xD6	; 214
     e76:	be 4f       	sbci	r27, 0xFE	; 254
     e78:	80 e0       	ldi	r24, 0x00	; 0
     e7a:	90 e0       	ldi	r25, 0x00	; 0
     e7c:	03 c0       	rjmp	.+6      	; 0xe84 <__stack+0x625>
     e7e:	3d 93       	st	X+, r19
     e80:	01 96       	adiw	r24, 0x01	; 1
     e82:	c3 cf       	rjmp	.-122    	; 0xe0a <__stack+0x5ab>
     e84:	fa 01       	movw	r30, r20
     e86:	e8 0f       	add	r30, r24
     e88:	f9 1f       	adc	r31, r25
     e8a:	34 91       	lpm	r19, Z+
     e8c:	3f 32       	cpi	r19, 0x2F	; 47
     e8e:	49 f5       	brne	.+82     	; 0xee2 <__stack+0x683>
     e90:	28 0f       	add	r18, r24
     e92:	30 91 bb 00 	lds	r19, 0x00BB
     e96:	e2 2f       	mov	r30, r18
     e98:	f0 e0       	ldi	r31, 0x00	; 0
     e9a:	e6 5d       	subi	r30, 0xD6	; 214
     e9c:	fe 4f       	sbci	r31, 0xFE	; 254
     e9e:	83 2f       	mov	r24, r19
     ea0:	6a e0       	ldi	r22, 0x0A	; 10
     ea2:	0e 94 7f 0d 	call	0x1afe	; 0x1afe <__udivmodqi4>
     ea6:	80 5d       	subi	r24, 0xD0	; 208
     ea8:	80 83       	st	Z, r24
     eaa:	2f 5f       	subi	r18, 0xFF	; 255
     eac:	e2 2f       	mov	r30, r18
     eae:	f0 e0       	ldi	r31, 0x00	; 0
     eb0:	e6 5d       	subi	r30, 0xD6	; 214
     eb2:	fe 4f       	sbci	r31, 0xFE	; 254
     eb4:	83 2f       	mov	r24, r19
     eb6:	0e 94 7f 0d 	call	0x1afe	; 0x1afe <__udivmodqi4>
     eba:	90 5d       	subi	r25, 0xD0	; 208
     ebc:	90 83       	st	Z, r25
     ebe:	2f 5f       	subi	r18, 0xFF	; 255
     ec0:	e2 2f       	mov	r30, r18
     ec2:	f0 e0       	ldi	r31, 0x00	; 0
     ec4:	e6 5d       	subi	r30, 0xD6	; 214
     ec6:	fe 4f       	sbci	r31, 0xFE	; 254
     ec8:	85 e2       	ldi	r24, 0x25	; 37
     eca:	80 83       	st	Z, r24
     ecc:	2f 5f       	subi	r18, 0xFF	; 255
     ece:	e2 2f       	mov	r30, r18
     ed0:	f0 e0       	ldi	r31, 0x00	; 0
     ed2:	e6 5d       	subi	r30, 0xD6	; 214
     ed4:	fe 4f       	sbci	r31, 0xFE	; 254
     ed6:	8b e3       	ldi	r24, 0x3B	; 59
     ed8:	80 83       	st	Z, r24
     eda:	62 2f       	mov	r22, r18
     edc:	6f 5f       	subi	r22, 0xFF	; 255
     ede:	81 e0       	ldi	r24, 0x01	; 1
     ee0:	04 c0       	rjmp	.+8      	; 0xeea <__stack+0x68b>
     ee2:	3d 93       	st	X+, r19
     ee4:	01 96       	adiw	r24, 0x01	; 1
     ee6:	ce cf       	rjmp	.-100    	; 0xe84 <__stack+0x625>
     ee8:	80 e0       	ldi	r24, 0x00	; 0
     eea:	00 23       	and	r16, r16
     eec:	21 f4       	brne	.+8      	; 0xef6 <__stack+0x697>
     eee:	11 23       	and	r17, r17
     ef0:	11 f4       	brne	.+4      	; 0xef6 <__stack+0x697>
     ef2:	88 23       	and	r24, r24
     ef4:	69 f0       	breq	.+26     	; 0xf10 <__stack+0x6b1>
     ef6:	e6 2f       	mov	r30, r22
     ef8:	f0 e0       	ldi	r31, 0x00	; 0
     efa:	e6 5d       	subi	r30, 0xD6	; 214
     efc:	fe 4f       	sbci	r31, 0xFE	; 254
     efe:	8f e2       	ldi	r24, 0x2F	; 47
     f00:	80 83       	st	Z, r24
     f02:	8a e2       	ldi	r24, 0x2A	; 42
     f04:	91 e0       	ldi	r25, 0x01	; 1
     f06:	61 e0       	ldi	r22, 0x01	; 1
     f08:	4f 2d       	mov	r20, r15
     f0a:	0e 94 58 02 	call	0x4b0	; 0x4b0 <send_sms>
     f0e:	81 e0       	ldi	r24, 0x01	; 1
     f10:	1f 91       	pop	r17
     f12:	0f 91       	pop	r16
     f14:	ff 90       	pop	r15
     f16:	08 95       	ret
     f18:	80 91 2a 01 	lds	r24, 0x012A
     f1c:	8f 34       	cpi	r24, 0x4F	; 79
     f1e:	09 f0       	breq	.+2      	; 0xf22 <__stack+0x6c3>
     f20:	02 ce       	rjmp	.-1020   	; 0xb26 <__stack+0x2c7>
     f22:	f7 cd       	rjmp	.-1042   	; 0xb12 <__stack+0x2b3>
     f24:	80 91 2a 01 	lds	r24, 0x012A
     f28:	8f 34       	cpi	r24, 0x4F	; 79
     f2a:	09 f0       	breq	.+2      	; 0xf2e <__stack+0x6cf>
     f2c:	1f cf       	rjmp	.-450    	; 0xd6c <__stack+0x50d>
     f2e:	14 cf       	rjmp	.-472    	; 0xd58 <__stack+0x4f9>

00000f30 <get_sms>:
     f30:	1f 93       	push	r17
     f32:	cf 93       	push	r28
     f34:	df 93       	push	r29
     f36:	90 91 63 02 	lds	r25, 0x0263
     f3a:	80 91 c3 00 	lds	r24, 0x00C3
     f3e:	98 17       	cp	r25, r24
     f40:	09 f4       	brne	.+2      	; 0xf44 <get_sms+0x14>
     f42:	89 c0       	rjmp	.+274    	; 0x1056 <get_sms+0x126>
     f44:	8c eb       	ldi	r24, 0xBC	; 188
     f46:	92 e0       	ldi	r25, 0x02	; 2
     f48:	24 e1       	ldi	r18, 0x14	; 20
     f4a:	31 e0       	ldi	r19, 0x01	; 1
     f4c:	f9 01       	movw	r30, r18
     f4e:	31 97       	sbiw	r30, 0x01	; 1
     f50:	f1 f7       	brne	.-4      	; 0xf4e <get_sms+0x1e>
     f52:	01 97       	sbiw	r24, 0x01	; 1
     f54:	d9 f7       	brne	.-10     	; 0xf4c <get_sms+0x1c>
     f56:	40 91 9c 02 	lds	r20, 0x029C
     f5a:	50 91 9d 02 	lds	r21, 0x029D
     f5e:	20 e0       	ldi	r18, 0x00	; 0
     f60:	30 e0       	ldi	r19, 0x00	; 0
     f62:	e0 91 c3 00 	lds	r30, 0x00C3
     f66:	f0 e0       	ldi	r31, 0x00	; 0
     f68:	33 96       	adiw	r30, 0x03	; 3
     f6a:	e2 0f       	add	r30, r18
     f6c:	f3 1f       	adc	r31, r19
     f6e:	f0 70       	andi	r31, 0x00	; 0
     f70:	e2 56       	subi	r30, 0x62	; 98
     f72:	fd 4f       	sbci	r31, 0xFD	; 253
     f74:	80 81       	ld	r24, Z
     f76:	fa 01       	movw	r30, r20
     f78:	e2 0f       	add	r30, r18
     f7a:	f3 1f       	adc	r31, r19
     f7c:	e4 91       	lpm	r30, Z+
     f7e:	8e 17       	cp	r24, r30
     f80:	09 f0       	breq	.+2      	; 0xf84 <get_sms+0x54>
     f82:	69 c0       	rjmp	.+210    	; 0x1056 <get_sms+0x126>
     f84:	26 30       	cpi	r18, 0x06	; 6
     f86:	31 05       	cpc	r19, r1
     f88:	29 f4       	brne	.+10     	; 0xf94 <get_sms+0x64>
     f8a:	80 91 c3 00 	lds	r24, 0x00C3
     f8e:	86 5f       	subi	r24, 0xF6	; 246
     f90:	80 93 c3 00 	sts	0x00C3, r24
     f94:	2f 5f       	subi	r18, 0xFF	; 255
     f96:	3f 4f       	sbci	r19, 0xFF	; 255
     f98:	27 30       	cpi	r18, 0x07	; 7
     f9a:	31 05       	cpc	r19, r1
     f9c:	11 f7       	brne	.-60     	; 0xf62 <get_sms+0x32>
     f9e:	cd ee       	ldi	r28, 0xED	; 237
     fa0:	d0 e0       	ldi	r29, 0x00	; 0
     fa2:	61 e0       	ldi	r22, 0x01	; 1
     fa4:	1f ef       	ldi	r17, 0xFF	; 255
     fa6:	40 e0       	ldi	r20, 0x00	; 0
     fa8:	50 e0       	ldi	r21, 0x00	; 0
     faa:	88 81       	ld	r24, Y
     fac:	8b 32       	cpi	r24, 0x2B	; 43
     fae:	89 f5       	brne	.+98     	; 0x1012 <get_sms+0xe2>
     fb0:	da 01       	movw	r26, r20
     fb2:	aa 0f       	add	r26, r26
     fb4:	bb 1f       	adc	r27, r27
     fb6:	a4 0f       	add	r26, r20
     fb8:	b5 1f       	adc	r27, r21
     fba:	aa 0f       	add	r26, r26
     fbc:	bb 1f       	adc	r27, r27
     fbe:	aa 0f       	add	r26, r26
     fc0:	bb 1f       	adc	r27, r27
     fc2:	a3 51       	subi	r26, 0x13	; 19
     fc4:	bf 4f       	sbci	r27, 0xFF	; 255
     fc6:	20 e0       	ldi	r18, 0x00	; 0
     fc8:	30 e0       	ldi	r19, 0x00	; 0
     fca:	74 2f       	mov	r23, r20
     fcc:	80 91 c3 00 	lds	r24, 0x00C3
     fd0:	f9 01       	movw	r30, r18
     fd2:	e8 0f       	add	r30, r24
     fd4:	f1 1d       	adc	r31, r1
     fd6:	f0 70       	andi	r31, 0x00	; 0
     fd8:	e2 56       	subi	r30, 0x62	; 98
     fda:	fd 4f       	sbci	r31, 0xFD	; 253
     fdc:	90 81       	ld	r25, Z
     fde:	8c 91       	ld	r24, X
     fe0:	98 17       	cp	r25, r24
     fe2:	11 f0       	breq	.+4      	; 0xfe8 <get_sms+0xb8>
     fe4:	80 e0       	ldi	r24, 0x00	; 0
     fe6:	16 c0       	rjmp	.+44     	; 0x1014 <get_sms+0xe4>
     fe8:	2b 30       	cpi	r18, 0x0B	; 11
     fea:	31 05       	cpc	r19, r1
     fec:	39 f4       	brne	.+14     	; 0xffc <get_sms+0xcc>
     fee:	80 91 c3 00 	lds	r24, 0x00C3
     ff2:	82 5f       	subi	r24, 0xF2	; 242
     ff4:	80 93 c3 00 	sts	0x00C3, r24
     ff8:	17 2f       	mov	r17, r23
     ffa:	61 e0       	ldi	r22, 0x01	; 1
     ffc:	2f 5f       	subi	r18, 0xFF	; 255
     ffe:	3f 4f       	sbci	r19, 0xFF	; 255
    1000:	11 96       	adiw	r26, 0x01	; 1
    1002:	2c 30       	cpi	r18, 0x0C	; 12
    1004:	31 05       	cpc	r19, r1
    1006:	11 f7       	brne	.-60     	; 0xfcc <get_sms+0x9c>
    1008:	86 2f       	mov	r24, r22
    100a:	66 23       	and	r22, r22
    100c:	19 f0       	breq	.+6      	; 0x1014 <get_sms+0xe4>
    100e:	91 e0       	ldi	r25, 0x01	; 1
    1010:	1c c0       	rjmp	.+56     	; 0x104a <get_sms+0x11a>
    1012:	86 2f       	mov	r24, r22
    1014:	4f 5f       	subi	r20, 0xFF	; 255
    1016:	5f 4f       	sbci	r21, 0xFF	; 255
    1018:	2c 96       	adiw	r28, 0x0c	; 12
    101a:	45 30       	cpi	r20, 0x05	; 5
    101c:	51 05       	cpc	r21, r1
    101e:	11 f4       	brne	.+4      	; 0x1024 <get_sms+0xf4>
    1020:	68 2f       	mov	r22, r24
    1022:	f5 cf       	rjmp	.-22     	; 0x100e <get_sms+0xde>
    1024:	68 2f       	mov	r22, r24
    1026:	c1 cf       	rjmp	.-126    	; 0xfaa <get_sms+0x7a>
    1028:	e0 91 c3 00 	lds	r30, 0x00C3
    102c:	e9 0f       	add	r30, r25
    102e:	f0 e0       	ldi	r31, 0x00	; 0
    1030:	e2 56       	subi	r30, 0x62	; 98
    1032:	fd 4f       	sbci	r31, 0xFD	; 253
    1034:	80 81       	ld	r24, Z
    1036:	82 32       	cpi	r24, 0x22	; 34
    1038:	39 f4       	brne	.+14     	; 0x1048 <get_sms+0x118>
    103a:	80 91 c3 00 	lds	r24, 0x00C3
    103e:	87 5e       	subi	r24, 0xE7	; 231
    1040:	89 0f       	add	r24, r25
    1042:	80 93 c3 00 	sts	0x00C3, r24
    1046:	03 c0       	rjmp	.+6      	; 0x104e <get_sms+0x11e>
    1048:	9f 5f       	subi	r25, 0xFF	; 255
    104a:	66 23       	and	r22, r22
    104c:	69 f7       	brne	.-38     	; 0x1028 <get_sms+0xf8>
    104e:	81 2f       	mov	r24, r17
    1050:	0e 94 74 03 	call	0x6e8	; 0x6e8 <sms_analyze>
    1054:	01 c0       	rjmp	.+2      	; 0x1058 <get_sms+0x128>
    1056:	80 e0       	ldi	r24, 0x00	; 0
    1058:	df 91       	pop	r29
    105a:	cf 91       	pop	r28
    105c:	1f 91       	pop	r17
    105e:	08 95       	ret

00001060 <send_cmd>:
    1060:	cf 93       	push	r28
    1062:	df 93       	push	r29
    1064:	bc 01       	movw	r22, r24
    1066:	40 e0       	ldi	r20, 0x00	; 0
    1068:	80 91 e6 00 	lds	r24, 0x00E6
    106c:	8f 5f       	subi	r24, 0xFF	; 255
    106e:	80 93 e6 00 	sts	0x00E6, r24
    1072:	a0 91 e6 00 	lds	r26, 0x00E6
    1076:	b0 e0       	ldi	r27, 0x00	; 0
    1078:	c4 2f       	mov	r28, r20
    107a:	d0 e0       	ldi	r29, 0x00	; 0
    107c:	9b 01       	movw	r18, r22
    107e:	2c 0f       	add	r18, r28
    1080:	3d 1f       	adc	r19, r29
    1082:	f9 01       	movw	r30, r18
    1084:	84 91       	lpm	r24, Z+
    1086:	a4 5a       	subi	r26, 0xA4	; 164
    1088:	be 4f       	sbci	r27, 0xFE	; 254
    108a:	8c 93       	st	X, r24
    108c:	21 96       	adiw	r28, 0x01	; 1
    108e:	c6 0f       	add	r28, r22
    1090:	d7 1f       	adc	r29, r23
    1092:	fe 01       	movw	r30, r28
    1094:	84 91       	lpm	r24, Z+
    1096:	80 32       	cpi	r24, 0x20	; 32
    1098:	e1 f4       	brne	.+56     	; 0x10d2 <send_cmd+0x72>
    109a:	80 91 e6 00 	lds	r24, 0x00E6
    109e:	8f 5f       	subi	r24, 0xFF	; 255
    10a0:	80 93 e6 00 	sts	0x00E6, r24
    10a4:	e0 91 e6 00 	lds	r30, 0x00E6
    10a8:	f0 e0       	ldi	r31, 0x00	; 0
    10aa:	e4 5a       	subi	r30, 0xA4	; 164
    10ac:	fe 4f       	sbci	r31, 0xFE	; 254
    10ae:	8d e0       	ldi	r24, 0x0D	; 13
    10b0:	80 83       	st	Z, r24
    10b2:	80 91 e6 00 	lds	r24, 0x00E6
    10b6:	8f 5f       	subi	r24, 0xFF	; 255
    10b8:	80 93 e6 00 	sts	0x00E6, r24
    10bc:	e0 91 e6 00 	lds	r30, 0x00E6
    10c0:	f0 e0       	ldi	r31, 0x00	; 0
    10c2:	e4 5a       	subi	r30, 0xA4	; 164
    10c4:	fe 4f       	sbci	r31, 0xFE	; 254
    10c6:	8a e0       	ldi	r24, 0x0A	; 10
    10c8:	80 83       	st	Z, r24
    10ca:	55 9a       	sbi	0x0a, 5	; 10
    10cc:	df 91       	pop	r29
    10ce:	cf 91       	pop	r28
    10d0:	08 95       	ret
    10d2:	4f 5f       	subi	r20, 0xFF	; 255
    10d4:	c9 cf       	rjmp	.-110    	; 0x1068 <send_cmd+0x8>

000010d6 <str_cmp>:
    10d6:	bc 01       	movw	r22, r24
    10d8:	20 91 63 02 	lds	r18, 0x0263
    10dc:	30 91 c3 00 	lds	r19, 0x00C3
    10e0:	e0 91 c3 00 	lds	r30, 0x00C3
    10e4:	ef 5f       	subi	r30, 0xFF	; 255
    10e6:	f0 e0       	ldi	r31, 0x00	; 0
    10e8:	e2 56       	subi	r30, 0x62	; 98
    10ea:	fd 4f       	sbci	r31, 0xFD	; 253
    10ec:	80 81       	ld	r24, Z
    10ee:	8d 30       	cpi	r24, 0x0D	; 13
    10f0:	61 f5       	brne	.+88     	; 0x114a <str_cmp+0x74>
    10f2:	e0 91 c3 00 	lds	r30, 0x00C3
    10f6:	ee 5f       	subi	r30, 0xFE	; 254
    10f8:	f0 e0       	ldi	r31, 0x00	; 0
    10fa:	e2 56       	subi	r30, 0x62	; 98
    10fc:	fd 4f       	sbci	r31, 0xFD	; 253
    10fe:	80 81       	ld	r24, Z
    1100:	8a 30       	cpi	r24, 0x0A	; 10
    1102:	19 f5       	brne	.+70     	; 0x114a <str_cmp+0x74>
    1104:	80 91 c3 00 	lds	r24, 0x00C3
    1108:	82 17       	cp	r24, r18
    110a:	f9 f0       	breq	.+62     	; 0x114a <str_cmp+0x74>
    110c:	43 2f       	mov	r20, r19
    110e:	4d 5f       	subi	r20, 0xFD	; 253
    1110:	20 e0       	ldi	r18, 0x00	; 0
    1112:	30 e0       	ldi	r19, 0x00	; 0
    1114:	e4 2f       	mov	r30, r20
    1116:	f0 e0       	ldi	r31, 0x00	; 0
    1118:	e2 56       	subi	r30, 0x62	; 98
    111a:	fd 4f       	sbci	r31, 0xFD	; 253
    111c:	80 81       	ld	r24, Z
    111e:	8d 30       	cpi	r24, 0x0D	; 13
    1120:	29 f4       	brne	.+10     	; 0x112c <str_cmp+0x56>
    1122:	4f 5f       	subi	r20, 0xFF	; 255
    1124:	40 93 c3 00 	sts	0x00C3, r20
    1128:	81 e0       	ldi	r24, 0x01	; 1
    112a:	08 95       	ret
    112c:	80 81       	ld	r24, Z
    112e:	fb 01       	movw	r30, r22
    1130:	e2 0f       	add	r30, r18
    1132:	f1 1d       	adc	r31, r1
    1134:	e4 91       	lpm	r30, Z+
    1136:	8e 17       	cp	r24, r30
    1138:	41 f4       	brne	.+16     	; 0x114a <str_cmp+0x74>
    113a:	2f 5f       	subi	r18, 0xFF	; 255
    113c:	3f 4f       	sbci	r19, 0xFF	; 255
    113e:	81 e0       	ldi	r24, 0x01	; 1
    1140:	20 30       	cpi	r18, 0x00	; 0
    1142:	38 07       	cpc	r19, r24
    1144:	11 f0       	breq	.+4      	; 0x114a <str_cmp+0x74>
    1146:	4f 5f       	subi	r20, 0xFF	; 255
    1148:	e5 cf       	rjmp	.-54     	; 0x1114 <str_cmp+0x3e>
    114a:	80 e0       	ldi	r24, 0x00	; 0
    114c:	08 95       	ret

0000114e <__vector_14>:
    114e:	1f 92       	push	r1
    1150:	0f 92       	push	r0
    1152:	0f b6       	in	r0, 0x3f	; 63
    1154:	0f 92       	push	r0
    1156:	11 24       	eor	r1, r1
    1158:	8f 93       	push	r24
    115a:	9f 93       	push	r25
    115c:	ef 93       	push	r30
    115e:	ff 93       	push	r31
    1160:	90 91 e6 00 	lds	r25, 0x00E6
    1164:	80 91 ea 00 	lds	r24, 0x00EA
    1168:	98 17       	cp	r25, r24
    116a:	69 f0       	breq	.+26     	; 0x1186 <__vector_14+0x38>
    116c:	80 91 ea 00 	lds	r24, 0x00EA
    1170:	8f 5f       	subi	r24, 0xFF	; 255
    1172:	80 93 ea 00 	sts	0x00EA, r24
    1176:	e0 91 ea 00 	lds	r30, 0x00EA
    117a:	f0 e0       	ldi	r31, 0x00	; 0
    117c:	e4 5a       	subi	r30, 0xA4	; 164
    117e:	fe 4f       	sbci	r31, 0xFE	; 254
    1180:	80 81       	ld	r24, Z
    1182:	8c b9       	out	0x0c, r24	; 12
    1184:	01 c0       	rjmp	.+2      	; 0x1188 <__vector_14+0x3a>
    1186:	55 98       	cbi	0x0a, 5	; 10
    1188:	ff 91       	pop	r31
    118a:	ef 91       	pop	r30
    118c:	9f 91       	pop	r25
    118e:	8f 91       	pop	r24
    1190:	0f 90       	pop	r0
    1192:	0f be       	out	0x3f, r0	; 63
    1194:	0f 90       	pop	r0
    1196:	1f 90       	pop	r1
    1198:	18 95       	reti

0000119a <__vector_13>:
    119a:	1f 92       	push	r1
    119c:	0f 92       	push	r0
    119e:	0f b6       	in	r0, 0x3f	; 63
    11a0:	0f 92       	push	r0
    11a2:	11 24       	eor	r1, r1
    11a4:	8f 93       	push	r24
    11a6:	9f 93       	push	r25
    11a8:	ef 93       	push	r30
    11aa:	ff 93       	push	r31
    11ac:	9c b1       	in	r25, 0x0c	; 12
    11ae:	80 91 9e 03 	lds	r24, 0x039E
    11b2:	83 30       	cpi	r24, 0x03	; 3
    11b4:	30 f4       	brcc	.+12     	; 0x11c2 <__vector_13+0x28>
    11b6:	80 91 9e 03 	lds	r24, 0x039E
    11ba:	8f 5f       	subi	r24, 0xFF	; 255
    11bc:	80 93 9e 03 	sts	0x039E, r24
    11c0:	09 c0       	rjmp	.+18     	; 0x11d4 <__vector_13+0x3a>
    11c2:	e0 91 63 02 	lds	r30, 0x0263
    11c6:	ef 5f       	subi	r30, 0xFF	; 255
    11c8:	e0 93 63 02 	sts	0x0263, r30
    11cc:	f0 e0       	ldi	r31, 0x00	; 0
    11ce:	e2 56       	subi	r30, 0x62	; 98
    11d0:	fd 4f       	sbci	r31, 0xFD	; 253
    11d2:	90 83       	st	Z, r25
    11d4:	ff 91       	pop	r31
    11d6:	ef 91       	pop	r30
    11d8:	9f 91       	pop	r25
    11da:	8f 91       	pop	r24
    11dc:	0f 90       	pop	r0
    11de:	0f be       	out	0x3f, r0	; 63
    11e0:	0f 90       	pop	r0
    11e2:	1f 90       	pop	r1
    11e4:	18 95       	reti

000011e6 <read_date>:
    11e6:	80 91 96 02 	lds	r24, 0x0296
    11ea:	90 91 97 02 	lds	r25, 0x0297
    11ee:	0e 94 30 08 	call	0x1060	; 0x1060 <send_cmd>
    11f2:	80 ed       	ldi	r24, 0xD0	; 208
    11f4:	97 e0       	ldi	r25, 0x07	; 7
    11f6:	24 e1       	ldi	r18, 0x14	; 20
    11f8:	31 e0       	ldi	r19, 0x01	; 1
    11fa:	f9 01       	movw	r30, r18
    11fc:	31 97       	sbiw	r30, 0x01	; 1
    11fe:	f1 f7       	brne	.-4      	; 0x11fc <read_date+0x16>
    1200:	01 97       	sbiw	r24, 0x01	; 1
    1202:	d9 f7       	brne	.-10     	; 0x11fa <read_date+0x14>
    1204:	e0 91 c3 00 	lds	r30, 0x00C3
    1208:	ec 5d       	subi	r30, 0xDC	; 220
    120a:	f0 e0       	ldi	r31, 0x00	; 0
    120c:	e2 56       	subi	r30, 0x62	; 98
    120e:	fd 4f       	sbci	r31, 0xFD	; 253
    1210:	80 81       	ld	r24, Z
    1212:	8f 34       	cpi	r24, 0x4F	; 79
    1214:	09 f0       	breq	.+2      	; 0x1218 <read_date+0x32>
    1216:	da c0       	rjmp	.+436    	; 0x13cc <read_date+0x1e6>
    1218:	e0 91 c3 00 	lds	r30, 0x00C3
    121c:	eb 5d       	subi	r30, 0xDB	; 219
    121e:	f0 e0       	ldi	r31, 0x00	; 0
    1220:	e2 56       	subi	r30, 0x62	; 98
    1222:	fd 4f       	sbci	r31, 0xFD	; 253
    1224:	80 81       	ld	r24, Z
    1226:	8b 34       	cpi	r24, 0x4B	; 75
    1228:	09 f0       	breq	.+2      	; 0x122c <read_date+0x46>
    122a:	d0 c0       	rjmp	.+416    	; 0x13cc <read_date+0x1e6>
    122c:	e0 91 c3 00 	lds	r30, 0x00C3
    1230:	e5 5f       	subi	r30, 0xF5	; 245
    1232:	f0 e0       	ldi	r31, 0x00	; 0
    1234:	e2 56       	subi	r30, 0x62	; 98
    1236:	fd 4f       	sbci	r31, 0xFD	; 253
    1238:	e0 81       	ld	r30, Z
    123a:	e0 91 c3 00 	lds	r30, 0x00C3
    123e:	e4 5f       	subi	r30, 0xF4	; 244
    1240:	f0 e0       	ldi	r31, 0x00	; 0
    1242:	e2 56       	subi	r30, 0x62	; 98
    1244:	fd 4f       	sbci	r31, 0xFD	; 253
    1246:	80 81       	ld	r24, Z
    1248:	80 53       	subi	r24, 0x30	; 48
    124a:	80 93 5c 02 	sts	0x025C, r24
    124e:	e0 91 c3 00 	lds	r30, 0x00C3
    1252:	e2 5f       	subi	r30, 0xF2	; 242
    1254:	f0 e0       	ldi	r31, 0x00	; 0
    1256:	e2 56       	subi	r30, 0x62	; 98
    1258:	fd 4f       	sbci	r31, 0xFD	; 253
    125a:	e0 81       	ld	r30, Z
    125c:	e0 91 c3 00 	lds	r30, 0x00C3
    1260:	e1 5f       	subi	r30, 0xF1	; 241
    1262:	f0 e0       	ldi	r31, 0x00	; 0
    1264:	e2 56       	subi	r30, 0x62	; 98
    1266:	fd 4f       	sbci	r31, 0xFD	; 253
    1268:	80 81       	ld	r24, Z
    126a:	80 53       	subi	r24, 0x30	; 48
    126c:	80 93 5d 02 	sts	0x025D, r24
    1270:	e0 91 c3 00 	lds	r30, 0x00C3
    1274:	ef 5e       	subi	r30, 0xEF	; 239
    1276:	f0 e0       	ldi	r31, 0x00	; 0
    1278:	e2 56       	subi	r30, 0x62	; 98
    127a:	fd 4f       	sbci	r31, 0xFD	; 253
    127c:	e0 81       	ld	r30, Z
    127e:	e0 91 c3 00 	lds	r30, 0x00C3
    1282:	ee 5e       	subi	r30, 0xEE	; 238
    1284:	f0 e0       	ldi	r31, 0x00	; 0
    1286:	e2 56       	subi	r30, 0x62	; 98
    1288:	fd 4f       	sbci	r31, 0xFD	; 253
    128a:	80 81       	ld	r24, Z
    128c:	80 53       	subi	r24, 0x30	; 48
    128e:	80 93 5e 02 	sts	0x025E, r24
    1292:	e0 91 c3 00 	lds	r30, 0x00C3
    1296:	ec 5e       	subi	r30, 0xEC	; 236
    1298:	f0 e0       	ldi	r31, 0x00	; 0
    129a:	e2 56       	subi	r30, 0x62	; 98
    129c:	fd 4f       	sbci	r31, 0xFD	; 253
    129e:	e0 81       	ld	r30, Z
    12a0:	e0 91 c3 00 	lds	r30, 0x00C3
    12a4:	eb 5e       	subi	r30, 0xEB	; 235
    12a6:	f0 e0       	ldi	r31, 0x00	; 0
    12a8:	e2 56       	subi	r30, 0x62	; 98
    12aa:	fd 4f       	sbci	r31, 0xFD	; 253
    12ac:	80 81       	ld	r24, Z
    12ae:	80 53       	subi	r24, 0x30	; 48
    12b0:	80 93 5f 02 	sts	0x025F, r24
    12b4:	e0 91 c3 00 	lds	r30, 0x00C3
    12b8:	e9 5e       	subi	r30, 0xE9	; 233
    12ba:	f0 e0       	ldi	r31, 0x00	; 0
    12bc:	e2 56       	subi	r30, 0x62	; 98
    12be:	fd 4f       	sbci	r31, 0xFD	; 253
    12c0:	e0 81       	ld	r30, Z
    12c2:	e0 91 c3 00 	lds	r30, 0x00C3
    12c6:	e8 5e       	subi	r30, 0xE8	; 232
    12c8:	f0 e0       	ldi	r31, 0x00	; 0
    12ca:	e2 56       	subi	r30, 0x62	; 98
    12cc:	fd 4f       	sbci	r31, 0xFD	; 253
    12ce:	80 81       	ld	r24, Z
    12d0:	80 53       	subi	r24, 0x30	; 48
    12d2:	80 93 60 02 	sts	0x0260, r24
    12d6:	e0 91 c3 00 	lds	r30, 0x00C3
    12da:	e6 5e       	subi	r30, 0xE6	; 230
    12dc:	f0 e0       	ldi	r31, 0x00	; 0
    12de:	e2 56       	subi	r30, 0x62	; 98
    12e0:	fd 4f       	sbci	r31, 0xFD	; 253
    12e2:	e0 81       	ld	r30, Z
    12e4:	e0 91 c3 00 	lds	r30, 0x00C3
    12e8:	e5 5e       	subi	r30, 0xE5	; 229
    12ea:	f0 e0       	ldi	r31, 0x00	; 0
    12ec:	e2 56       	subi	r30, 0x62	; 98
    12ee:	fd 4f       	sbci	r31, 0xFD	; 253
    12f0:	80 81       	ld	r24, Z
    12f2:	80 53       	subi	r24, 0x30	; 48
    12f4:	80 93 61 02 	sts	0x0261, r24
    12f8:	80 91 63 02 	lds	r24, 0x0263
    12fc:	80 93 c3 00 	sts	0x00C3, r24
    1300:	80 e0       	ldi	r24, 0x00	; 0
    1302:	60 e0       	ldi	r22, 0x00	; 0
    1304:	0e 94 d2 01 	call	0x3a4	; 0x3a4 <lcd_locate>
    1308:	80 91 5e 02 	lds	r24, 0x025E
    130c:	8a 30       	cpi	r24, 0x0A	; 10
    130e:	20 f4       	brcc	.+8      	; 0x1318 <read_date+0x132>
    1310:	80 e0       	ldi	r24, 0x00	; 0
    1312:	90 e0       	ldi	r25, 0x00	; 0
    1314:	0e 94 3c 02 	call	0x478	; 0x478 <lcd_int>
    1318:	80 91 5e 02 	lds	r24, 0x025E
    131c:	90 e0       	ldi	r25, 0x00	; 0
    131e:	0e 94 3c 02 	call	0x478	; 0x478 <lcd_int>
    1322:	80 e6       	ldi	r24, 0x60	; 96
    1324:	90 e0       	ldi	r25, 0x00	; 0
    1326:	0e 94 a8 01 	call	0x350	; 0x350 <lcd_str>
    132a:	80 91 5d 02 	lds	r24, 0x025D
    132e:	8a 30       	cpi	r24, 0x0A	; 10
    1330:	20 f4       	brcc	.+8      	; 0x133a <read_date+0x154>
    1332:	80 e0       	ldi	r24, 0x00	; 0
    1334:	90 e0       	ldi	r25, 0x00	; 0
    1336:	0e 94 3c 02 	call	0x478	; 0x478 <lcd_int>
    133a:	80 91 5d 02 	lds	r24, 0x025D
    133e:	90 e0       	ldi	r25, 0x00	; 0
    1340:	0e 94 3c 02 	call	0x478	; 0x478 <lcd_int>
    1344:	80 e6       	ldi	r24, 0x60	; 96
    1346:	90 e0       	ldi	r25, 0x00	; 0
    1348:	0e 94 a8 01 	call	0x350	; 0x350 <lcd_str>
    134c:	80 91 5c 02 	lds	r24, 0x025C
    1350:	8a 30       	cpi	r24, 0x0A	; 10
    1352:	20 f4       	brcc	.+8      	; 0x135c <read_date+0x176>
    1354:	80 e0       	ldi	r24, 0x00	; 0
    1356:	90 e0       	ldi	r25, 0x00	; 0
    1358:	0e 94 3c 02 	call	0x478	; 0x478 <lcd_int>
    135c:	80 91 5c 02 	lds	r24, 0x025C
    1360:	90 e0       	ldi	r25, 0x00	; 0
    1362:	0e 94 3c 02 	call	0x478	; 0x478 <lcd_int>
    1366:	80 e0       	ldi	r24, 0x00	; 0
    1368:	69 e0       	ldi	r22, 0x09	; 9
    136a:	0e 94 d2 01 	call	0x3a4	; 0x3a4 <lcd_locate>
    136e:	80 91 5f 02 	lds	r24, 0x025F
    1372:	8a 30       	cpi	r24, 0x0A	; 10
    1374:	20 f4       	brcc	.+8      	; 0x137e <read_date+0x198>
    1376:	80 e0       	ldi	r24, 0x00	; 0
    1378:	90 e0       	ldi	r25, 0x00	; 0
    137a:	0e 94 3c 02 	call	0x478	; 0x478 <lcd_int>
    137e:	80 91 5f 02 	lds	r24, 0x025F
    1382:	90 e0       	ldi	r25, 0x00	; 0
    1384:	0e 94 3c 02 	call	0x478	; 0x478 <lcd_int>
    1388:	82 e6       	ldi	r24, 0x62	; 98
    138a:	90 e0       	ldi	r25, 0x00	; 0
    138c:	0e 94 a8 01 	call	0x350	; 0x350 <lcd_str>
    1390:	80 91 60 02 	lds	r24, 0x0260
    1394:	8a 30       	cpi	r24, 0x0A	; 10
    1396:	20 f4       	brcc	.+8      	; 0x13a0 <read_date+0x1ba>
    1398:	80 e0       	ldi	r24, 0x00	; 0
    139a:	90 e0       	ldi	r25, 0x00	; 0
    139c:	0e 94 3c 02 	call	0x478	; 0x478 <lcd_int>
    13a0:	80 91 60 02 	lds	r24, 0x0260
    13a4:	90 e0       	ldi	r25, 0x00	; 0
    13a6:	0e 94 3c 02 	call	0x478	; 0x478 <lcd_int>
    13aa:	82 e6       	ldi	r24, 0x62	; 98
    13ac:	90 e0       	ldi	r25, 0x00	; 0
    13ae:	0e 94 a8 01 	call	0x350	; 0x350 <lcd_str>
    13b2:	80 91 61 02 	lds	r24, 0x0261
    13b6:	8a 30       	cpi	r24, 0x0A	; 10
    13b8:	20 f4       	brcc	.+8      	; 0x13c2 <read_date+0x1dc>
    13ba:	80 e0       	ldi	r24, 0x00	; 0
    13bc:	90 e0       	ldi	r25, 0x00	; 0
    13be:	0e 94 3c 02 	call	0x478	; 0x478 <lcd_int>
    13c2:	80 91 61 02 	lds	r24, 0x0261
    13c6:	90 e0       	ldi	r25, 0x00	; 0
    13c8:	0e 94 3c 02 	call	0x478	; 0x478 <lcd_int>
    13cc:	81 e0       	ldi	r24, 0x01	; 1
    13ce:	08 95       	ret

000013d0 <__vector_10>:
    13d0:	1f 92       	push	r1
    13d2:	0f 92       	push	r0
    13d4:	0f b6       	in	r0, 0x3f	; 63
    13d6:	0f 92       	push	r0
    13d8:	11 24       	eor	r1, r1
    13da:	2f 93       	push	r18
    13dc:	3f 93       	push	r19
    13de:	4f 93       	push	r20
    13e0:	5f 93       	push	r21
    13e2:	6f 93       	push	r22
    13e4:	7f 93       	push	r23
    13e6:	8f 93       	push	r24
    13e8:	9f 93       	push	r25
    13ea:	af 93       	push	r26
    13ec:	bf 93       	push	r27
    13ee:	ef 93       	push	r30
    13f0:	ff 93       	push	r31
    13f2:	80 91 ec 00 	lds	r24, 0x00EC
    13f6:	8f 5f       	subi	r24, 0xFF	; 255
    13f8:	80 93 ec 00 	sts	0x00EC, r24
    13fc:	80 91 ec 00 	lds	r24, 0x00EC
    1400:	82 33       	cpi	r24, 0x32	; 50
    1402:	09 f0       	breq	.+2      	; 0x1406 <__vector_10+0x36>
    1404:	5b c0       	rjmp	.+182    	; 0x14bc <__vector_10+0xec>
    1406:	10 92 ec 00 	sts	0x00EC, r1
    140a:	80 91 61 02 	lds	r24, 0x0261
    140e:	8f 5f       	subi	r24, 0xFF	; 255
    1410:	80 93 61 02 	sts	0x0261, r24
    1414:	8c 33       	cpi	r24, 0x3C	; 60
    1416:	09 f0       	breq	.+2      	; 0x141a <__vector_10+0x4a>
    1418:	40 c0       	rjmp	.+128    	; 0x149a <__vector_10+0xca>
    141a:	10 92 61 02 	sts	0x0261, r1
    141e:	80 91 60 02 	lds	r24, 0x0260
    1422:	8f 5f       	subi	r24, 0xFF	; 255
    1424:	80 93 60 02 	sts	0x0260, r24
    1428:	8c 33       	cpi	r24, 0x3C	; 60
    142a:	11 f5       	brne	.+68     	; 0x1470 <__vector_10+0xa0>
    142c:	10 92 60 02 	sts	0x0260, r1
    1430:	80 91 5f 02 	lds	r24, 0x025F
    1434:	8f 5f       	subi	r24, 0xFF	; 255
    1436:	80 93 5f 02 	sts	0x025F, r24
    143a:	88 31       	cpi	r24, 0x18	; 24
    143c:	21 f4       	brne	.+8      	; 0x1446 <__vector_10+0x76>
    143e:	10 92 5f 02 	sts	0x025F, r1
    1442:	0e 94 f3 08 	call	0x11e6	; 0x11e6 <read_date>
    1446:	80 e0       	ldi	r24, 0x00	; 0
    1448:	69 e0       	ldi	r22, 0x09	; 9
    144a:	0e 94 d2 01 	call	0x3a4	; 0x3a4 <lcd_locate>
    144e:	80 91 5f 02 	lds	r24, 0x025F
    1452:	8a 30       	cpi	r24, 0x0A	; 10
    1454:	20 f4       	brcc	.+8      	; 0x145e <__vector_10+0x8e>
    1456:	80 e0       	ldi	r24, 0x00	; 0
    1458:	90 e0       	ldi	r25, 0x00	; 0
    145a:	0e 94 3c 02 	call	0x478	; 0x478 <lcd_int>
    145e:	80 91 5f 02 	lds	r24, 0x025F
    1462:	90 e0       	ldi	r25, 0x00	; 0
    1464:	0e 94 3c 02 	call	0x478	; 0x478 <lcd_int>
    1468:	82 e6       	ldi	r24, 0x62	; 98
    146a:	90 e0       	ldi	r25, 0x00	; 0
    146c:	0e 94 a8 01 	call	0x350	; 0x350 <lcd_str>
    1470:	80 e0       	ldi	r24, 0x00	; 0
    1472:	6c e0       	ldi	r22, 0x0C	; 12
    1474:	0e 94 d2 01 	call	0x3a4	; 0x3a4 <lcd_locate>
    1478:	80 91 60 02 	lds	r24, 0x0260
    147c:	8a 30       	cpi	r24, 0x0A	; 10
    147e:	20 f4       	brcc	.+8      	; 0x1488 <__vector_10+0xb8>
    1480:	80 e0       	ldi	r24, 0x00	; 0
    1482:	90 e0       	ldi	r25, 0x00	; 0
    1484:	0e 94 3c 02 	call	0x478	; 0x478 <lcd_int>
    1488:	80 91 60 02 	lds	r24, 0x0260
    148c:	90 e0       	ldi	r25, 0x00	; 0
    148e:	0e 94 3c 02 	call	0x478	; 0x478 <lcd_int>
    1492:	82 e6       	ldi	r24, 0x62	; 98
    1494:	90 e0       	ldi	r25, 0x00	; 0
    1496:	0e 94 a8 01 	call	0x350	; 0x350 <lcd_str>
    149a:	80 e0       	ldi	r24, 0x00	; 0
    149c:	6f e0       	ldi	r22, 0x0F	; 15
    149e:	0e 94 d2 01 	call	0x3a4	; 0x3a4 <lcd_locate>
    14a2:	80 91 61 02 	lds	r24, 0x0261
    14a6:	8a 30       	cpi	r24, 0x0A	; 10
    14a8:	20 f4       	brcc	.+8      	; 0x14b2 <__vector_10+0xe2>
    14aa:	80 e0       	ldi	r24, 0x00	; 0
    14ac:	90 e0       	ldi	r25, 0x00	; 0
    14ae:	0e 94 3c 02 	call	0x478	; 0x478 <lcd_int>
    14b2:	80 91 61 02 	lds	r24, 0x0261
    14b6:	90 e0       	ldi	r25, 0x00	; 0
    14b8:	0e 94 3c 02 	call	0x478	; 0x478 <lcd_int>
    14bc:	9a 9b       	sbis	0x13, 2	; 19
    14be:	02 c0       	rjmp	.+4      	; 0x14c4 <__vector_10+0xf4>
    14c0:	a9 9a       	sbi	0x15, 1	; 21
    14c2:	01 c0       	rjmp	.+2      	; 0x14c6 <__vector_10+0xf6>
    14c4:	a9 98       	cbi	0x15, 1	; 21
    14c6:	ff 91       	pop	r31
    14c8:	ef 91       	pop	r30
    14ca:	bf 91       	pop	r27
    14cc:	af 91       	pop	r26
    14ce:	9f 91       	pop	r25
    14d0:	8f 91       	pop	r24
    14d2:	7f 91       	pop	r23
    14d4:	6f 91       	pop	r22
    14d6:	5f 91       	pop	r21
    14d8:	4f 91       	pop	r20
    14da:	3f 91       	pop	r19
    14dc:	2f 91       	pop	r18
    14de:	0f 90       	pop	r0
    14e0:	0f be       	out	0x3f, r0	; 63
    14e2:	0f 90       	pop	r0
    14e4:	1f 90       	pop	r1
    14e6:	18 95       	reti

000014e8 <main>:
    14e8:	0f 93       	push	r16
    14ea:	1f 93       	push	r17
    14ec:	cf 93       	push	r28
    14ee:	df 93       	push	r29
    14f0:	80 e9       	ldi	r24, 0x90	; 144
    14f2:	91 e0       	ldi	r25, 0x01	; 1
    14f4:	90 93 c7 00 	sts	0x00C7, r25
    14f8:	80 93 c6 00 	sts	0x00C6, r24
    14fc:	8a e8       	ldi	r24, 0x8A	; 138
    14fe:	91 e0       	ldi	r25, 0x01	; 1
    1500:	90 93 c9 00 	sts	0x00C9, r25
    1504:	80 93 c8 00 	sts	0x00C8, r24
    1508:	85 e8       	ldi	r24, 0x85	; 133
    150a:	91 e0       	ldi	r25, 0x01	; 1
    150c:	90 93 cb 00 	sts	0x00CB, r25
    1510:	80 93 ca 00 	sts	0x00CA, r24
    1514:	80 e8       	ldi	r24, 0x80	; 128
    1516:	91 e0       	ldi	r25, 0x01	; 1
    1518:	90 93 cd 00 	sts	0x00CD, r25
    151c:	80 93 cc 00 	sts	0x00CC, r24
    1520:	86 e7       	ldi	r24, 0x76	; 118
    1522:	91 e0       	ldi	r25, 0x01	; 1
    1524:	90 93 cf 00 	sts	0x00CF, r25
    1528:	80 93 ce 00 	sts	0x00CE, r24
    152c:	82 e7       	ldi	r24, 0x72	; 114
    152e:	91 e0       	ldi	r25, 0x01	; 1
    1530:	90 93 d1 00 	sts	0x00D1, r25
    1534:	80 93 d0 00 	sts	0x00D0, r24
    1538:	8d e6       	ldi	r24, 0x6D	; 109
    153a:	91 e0       	ldi	r25, 0x01	; 1
    153c:	90 93 d3 00 	sts	0x00D3, r25
    1540:	80 93 d2 00 	sts	0x00D2, r24
    1544:	85 e6       	ldi	r24, 0x65	; 101
    1546:	91 e0       	ldi	r25, 0x01	; 1
    1548:	90 93 d5 00 	sts	0x00D5, r25
    154c:	80 93 d4 00 	sts	0x00D4, r24
    1550:	8e e5       	ldi	r24, 0x5E	; 94
    1552:	91 e0       	ldi	r25, 0x01	; 1
    1554:	90 93 d7 00 	sts	0x00D7, r25
    1558:	80 93 d6 00 	sts	0x00D6, r24
    155c:	87 e5       	ldi	r24, 0x57	; 87
    155e:	91 e0       	ldi	r25, 0x01	; 1
    1560:	90 93 d9 00 	sts	0x00D9, r25
    1564:	80 93 d8 00 	sts	0x00D8, r24
    1568:	8b e4       	ldi	r24, 0x4B	; 75
    156a:	91 e0       	ldi	r25, 0x01	; 1
    156c:	90 93 db 00 	sts	0x00DB, r25
    1570:	80 93 da 00 	sts	0x00DA, r24
    1574:	80 e4       	ldi	r24, 0x40	; 64
    1576:	91 e0       	ldi	r25, 0x01	; 1
    1578:	90 93 dd 00 	sts	0x00DD, r25
    157c:	80 93 dc 00 	sts	0x00DC, r24
    1580:	85 e3       	ldi	r24, 0x35	; 53
    1582:	91 e0       	ldi	r25, 0x01	; 1
    1584:	90 93 df 00 	sts	0x00DF, r25
    1588:	80 93 de 00 	sts	0x00DE, r24
    158c:	89 e2       	ldi	r24, 0x29	; 41
    158e:	91 e0       	ldi	r25, 0x01	; 1
    1590:	90 93 e1 00 	sts	0x00E1, r25
    1594:	80 93 e0 00 	sts	0x00E0, r24
    1598:	8e e1       	ldi	r24, 0x1E	; 30
    159a:	91 e0       	ldi	r25, 0x01	; 1
    159c:	90 93 e3 00 	sts	0x00E3, r25
    15a0:	80 93 e2 00 	sts	0x00E2, r24
    15a4:	83 e1       	ldi	r24, 0x13	; 19
    15a6:	91 e0       	ldi	r25, 0x01	; 1
    15a8:	90 93 e5 00 	sts	0x00E5, r25
    15ac:	80 93 e4 00 	sts	0x00E4, r24
    15b0:	82 e0       	ldi	r24, 0x02	; 2
    15b2:	91 e0       	ldi	r25, 0x01	; 1
    15b4:	90 93 79 02 	sts	0x0279, r25
    15b8:	80 93 78 02 	sts	0x0278, r24
    15bc:	82 ee       	ldi	r24, 0xE2	; 226
    15be:	90 e0       	ldi	r25, 0x00	; 0
    15c0:	90 93 7b 02 	sts	0x027B, r25
    15c4:	80 93 7a 02 	sts	0x027A, r24
    15c8:	8e ed       	ldi	r24, 0xDE	; 222
    15ca:	90 e0       	ldi	r25, 0x00	; 0
    15cc:	90 93 7d 02 	sts	0x027D, r25
    15d0:	80 93 7c 02 	sts	0x027C, r24
    15d4:	85 ed       	ldi	r24, 0xD5	; 213
    15d6:	90 e0       	ldi	r25, 0x00	; 0
    15d8:	90 93 7f 02 	sts	0x027F, r25
    15dc:	80 93 7e 02 	sts	0x027E, r24
    15e0:	88 ec       	ldi	r24, 0xC8	; 200
    15e2:	90 e0       	ldi	r25, 0x00	; 0
    15e4:	90 93 81 02 	sts	0x0281, r25
    15e8:	80 93 80 02 	sts	0x0280, r24
    15ec:	8d eb       	ldi	r24, 0xBD	; 189
    15ee:	90 e0       	ldi	r25, 0x00	; 0
    15f0:	90 93 83 02 	sts	0x0283, r25
    15f4:	80 93 82 02 	sts	0x0282, r24
    15f8:	87 eb       	ldi	r24, 0xB7	; 183
    15fa:	90 e0       	ldi	r25, 0x00	; 0
    15fc:	90 93 85 02 	sts	0x0285, r25
    1600:	80 93 84 02 	sts	0x0284, r24
    1604:	82 eb       	ldi	r24, 0xB2	; 178
    1606:	90 e0       	ldi	r25, 0x00	; 0
    1608:	90 93 87 02 	sts	0x0287, r25
    160c:	80 93 86 02 	sts	0x0286, r24
    1610:	8f ea       	ldi	r24, 0xAF	; 175
    1612:	90 e0       	ldi	r25, 0x00	; 0
    1614:	90 93 89 02 	sts	0x0289, r25
    1618:	80 93 88 02 	sts	0x0288, r24
    161c:	89 ea       	ldi	r24, 0xA9	; 169
    161e:	90 e0       	ldi	r25, 0x00	; 0
    1620:	90 93 8b 02 	sts	0x028B, r25
    1624:	80 93 8a 02 	sts	0x028A, r24
    1628:	8f e9       	ldi	r24, 0x9F	; 159
    162a:	90 e0       	ldi	r25, 0x00	; 0
    162c:	90 93 8d 02 	sts	0x028D, r25
    1630:	80 93 8c 02 	sts	0x028C, r24
    1634:	84 e9       	ldi	r24, 0x94	; 148
    1636:	90 e0       	ldi	r25, 0x00	; 0
    1638:	90 93 8f 02 	sts	0x028F, r25
    163c:	80 93 8e 02 	sts	0x028E, r24
    1640:	8c e8       	ldi	r24, 0x8C	; 140
    1642:	90 e0       	ldi	r25, 0x00	; 0
    1644:	90 93 91 02 	sts	0x0291, r25
    1648:	80 93 90 02 	sts	0x0290, r24
    164c:	84 e8       	ldi	r24, 0x84	; 132
    164e:	90 e0       	ldi	r25, 0x00	; 0
    1650:	90 93 93 02 	sts	0x0293, r25
    1654:	80 93 92 02 	sts	0x0292, r24
    1658:	8b e7       	ldi	r24, 0x7B	; 123
    165a:	90 e0       	ldi	r25, 0x00	; 0
    165c:	90 93 95 02 	sts	0x0295, r25
    1660:	80 93 94 02 	sts	0x0294, r24
    1664:	81 e7       	ldi	r24, 0x71	; 113
    1666:	90 e0       	ldi	r25, 0x00	; 0
    1668:	90 93 97 02 	sts	0x0297, r25
    166c:	80 93 96 02 	sts	0x0296, r24
    1670:	86 e6       	ldi	r24, 0x66	; 102
    1672:	90 e0       	ldi	r25, 0x00	; 0
    1674:	90 93 99 02 	sts	0x0299, r25
    1678:	80 93 98 02 	sts	0x0298, r24
    167c:	8c e5       	ldi	r24, 0x5C	; 92
    167e:	90 e0       	ldi	r25, 0x00	; 0
    1680:	90 93 9b 02 	sts	0x029B, r25
    1684:	80 93 9a 02 	sts	0x029A, r24
    1688:	84 e5       	ldi	r24, 0x54	; 84
    168a:	90 e0       	ldi	r25, 0x00	; 0
    168c:	90 93 9d 02 	sts	0x029D, r25
    1690:	80 93 9c 02 	sts	0x029C, r24
    1694:	8b e2       	ldi	r24, 0x2B	; 43
    1696:	80 93 f9 00 	sts	0x00F9, r24
    169a:	84 e3       	ldi	r24, 0x34	; 52
    169c:	80 93 fa 00 	sts	0x00FA, r24
    16a0:	88 e3       	ldi	r24, 0x38	; 56
    16a2:	80 93 fb 00 	sts	0x00FB, r24
    16a6:	87 e3       	ldi	r24, 0x37	; 55
    16a8:	80 93 fc 00 	sts	0x00FC, r24
    16ac:	92 e3       	ldi	r25, 0x32	; 50
    16ae:	90 93 fd 00 	sts	0x00FD, r25
    16b2:	81 e3       	ldi	r24, 0x31	; 49
    16b4:	80 93 fe 00 	sts	0x00FE, r24
    16b8:	80 93 ff 00 	sts	0x00FF, r24
    16bc:	85 e3       	ldi	r24, 0x35	; 53
    16be:	80 93 00 01 	sts	0x0100, r24
    16c2:	86 e3       	ldi	r24, 0x36	; 54
    16c4:	80 93 01 01 	sts	0x0101, r24
    16c8:	83 e3       	ldi	r24, 0x33	; 51
    16ca:	80 93 02 01 	sts	0x0102, r24
    16ce:	80 e3       	ldi	r24, 0x30	; 48
    16d0:	80 93 03 01 	sts	0x0103, r24
    16d4:	90 93 04 01 	sts	0x0104, r25
    16d8:	d7 9a       	sbi	0x1a, 7	; 26
    16da:	df 9a       	sbi	0x1b, 7	; 27
    16dc:	bc 9a       	sbi	0x17, 4	; 23
    16de:	84 b3       	in	r24, 0x14	; 20
    16e0:	83 64       	ori	r24, 0x43	; 67
    16e2:	84 bb       	out	0x14, r24	; 20
    16e4:	a8 9a       	sbi	0x15, 0	; 21
    16e6:	82 b3       	in	r24, 0x12	; 18
    16e8:	88 6f       	ori	r24, 0xF8	; 248
    16ea:	82 bb       	out	0x12, r24	; 18
    16ec:	10 bc       	out	0x20, r1	; 32
    16ee:	83 e2       	ldi	r24, 0x23	; 35
    16f0:	89 b9       	out	0x09, r24	; 9
    16f2:	8a b1       	in	r24, 0x0a	; 10
    16f4:	88 61       	ori	r24, 0x18	; 24
    16f6:	8a b9       	out	0x0a, r24	; 10
    16f8:	80 b5       	in	r24, 0x20	; 32
    16fa:	86 68       	ori	r24, 0x86	; 134
    16fc:	80 bd       	out	0x20, r24	; 32
    16fe:	8a b1       	in	r24, 0x0a	; 10
    1700:	80 6a       	ori	r24, 0xA0	; 160
    1702:	8a b9       	out	0x0a, r24	; 10
    1704:	8a 9a       	sbi	0x11, 2	; 17
    1706:	87 b3       	in	r24, 0x17	; 23
    1708:	80 6a       	ori	r24, 0xA0	; 160
    170a:	87 bb       	out	0x17, r24	; 23
    170c:	8d b1       	in	r24, 0x0d	; 13
    170e:	83 65       	ori	r24, 0x53	; 83
    1710:	8d b9       	out	0x0d, r24	; 13
    1712:	1f b8       	out	0x0f, r1	; 15
    1714:	89 e9       	ldi	r24, 0x99	; 153
    1716:	95 e1       	ldi	r25, 0x15	; 21
    1718:	01 97       	sbiw	r24, 0x01	; 1
    171a:	f1 f7       	brne	.-4      	; 0x1718 <main+0x230>
    171c:	92 9a       	sbi	0x12, 2	; 18
    171e:	92 98       	cbi	0x12, 2	; 18
    1720:	83 b7       	in	r24, 0x33	; 51
    1722:	88 60       	ori	r24, 0x08	; 8
    1724:	83 bf       	out	0x33, r24	; 51
    1726:	83 b7       	in	r24, 0x33	; 51
    1728:	85 60       	ori	r24, 0x05	; 5
    172a:	83 bf       	out	0x33, r24	; 51
    172c:	88 ed       	ldi	r24, 0xD8	; 216
    172e:	8c bf       	out	0x3c, r24	; 60
    1730:	0e 94 ea 01 	call	0x3d4	; 0x3d4 <lcd_init>
    1734:	0e 94 e2 01 	call	0x3c4	; 0x3c4 <lcd_cls>
    1738:	84 e6       	ldi	r24, 0x64	; 100
    173a:	90 e0       	ldi	r25, 0x00	; 0
    173c:	0e 94 a8 01 	call	0x350	; 0x350 <lcd_str>
    1740:	81 e0       	ldi	r24, 0x01	; 1
    1742:	66 e0       	ldi	r22, 0x06	; 6
    1744:	0e 94 d2 01 	call	0x3a4	; 0x3a4 <lcd_locate>
    1748:	85 e7       	ldi	r24, 0x75	; 117
    174a:	90 e0       	ldi	r25, 0x00	; 0
    174c:	0e 94 a8 01 	call	0x350	; 0x350 <lcd_str>
    1750:	b9 9a       	sbi	0x17, 1	; 23
    1752:	c4 9a       	sbi	0x18, 4	; 24
    1754:	80 e4       	ldi	r24, 0x40	; 64
    1756:	9f e1       	ldi	r25, 0x1F	; 31
    1758:	24 e1       	ldi	r18, 0x14	; 20
    175a:	31 e0       	ldi	r19, 0x01	; 1
    175c:	f9 01       	movw	r30, r18
    175e:	31 97       	sbiw	r30, 0x01	; 1
    1760:	f1 f7       	brne	.-4      	; 0x175e <main+0x276>
    1762:	01 97       	sbiw	r24, 0x01	; 1
    1764:	d9 f7       	brne	.-10     	; 0x175c <main+0x274>
    1766:	c4 98       	cbi	0x18, 4	; 24
    1768:	80 ed       	ldi	r24, 0xD0	; 208
    176a:	97 e0       	ldi	r25, 0x07	; 7
    176c:	24 e1       	ldi	r18, 0x14	; 20
    176e:	31 e0       	ldi	r19, 0x01	; 1
    1770:	f9 01       	movw	r30, r18
    1772:	31 97       	sbiw	r30, 0x01	; 1
    1774:	f1 f7       	brne	.-4      	; 0x1772 <main+0x28a>
    1776:	01 97       	sbiw	r24, 0x01	; 1
    1778:	d9 f7       	brne	.-10     	; 0x1770 <main+0x288>
    177a:	78 94       	sei
    177c:	80 91 7c 02 	lds	r24, 0x027C
    1780:	90 91 7d 02 	lds	r25, 0x027D
    1784:	0e 94 6b 08 	call	0x10d6	; 0x10d6 <str_cmp>
    1788:	88 23       	and	r24, r24
    178a:	c1 f3       	breq	.-16     	; 0x177c <main+0x294>
    178c:	80 91 7e 02 	lds	r24, 0x027E
    1790:	90 91 7f 02 	lds	r25, 0x027F
    1794:	0e 94 6b 08 	call	0x10d6	; 0x10d6 <str_cmp>
    1798:	88 23       	and	r24, r24
    179a:	c1 f3       	breq	.-16     	; 0x178c <main+0x2a4>
    179c:	80 91 80 02 	lds	r24, 0x0280
    17a0:	90 91 81 02 	lds	r25, 0x0281
    17a4:	0e 94 6b 08 	call	0x10d6	; 0x10d6 <str_cmp>
    17a8:	88 23       	and	r24, r24
    17aa:	c1 f3       	breq	.-16     	; 0x179c <main+0x2b4>
    17ac:	80 91 82 02 	lds	r24, 0x0282
    17b0:	90 91 83 02 	lds	r25, 0x0283
    17b4:	0e 94 6b 08 	call	0x10d6	; 0x10d6 <str_cmp>
    17b8:	88 23       	and	r24, r24
    17ba:	c1 f3       	breq	.-16     	; 0x17ac <main+0x2c4>
    17bc:	0e 94 e2 01 	call	0x3c4	; 0x3c4 <lcd_cls>
    17c0:	89 e7       	ldi	r24, 0x79	; 121
    17c2:	90 e0       	ldi	r25, 0x00	; 0
    17c4:	0e 94 a8 01 	call	0x350	; 0x350 <lcd_str>
    17c8:	80 91 84 02 	lds	r24, 0x0284
    17cc:	90 91 85 02 	lds	r25, 0x0285
    17d0:	0e 94 30 08 	call	0x1060	; 0x1060 <send_cmd>
    17d4:	80 91 c3 00 	lds	r24, 0x00C3
    17d8:	82 50       	subi	r24, 0x02	; 2
    17da:	80 93 c3 00 	sts	0x00C3, r24
    17de:	80 91 86 02 	lds	r24, 0x0286
    17e2:	90 91 87 02 	lds	r25, 0x0287
    17e6:	0e 94 6b 08 	call	0x10d6	; 0x10d6 <str_cmp>
    17ea:	88 23       	and	r24, r24
    17ec:	c1 f3       	breq	.-16     	; 0x17de <main+0x2f6>
    17ee:	80 91 88 02 	lds	r24, 0x0288
    17f2:	90 91 89 02 	lds	r25, 0x0289
    17f6:	0e 94 6b 08 	call	0x10d6	; 0x10d6 <str_cmp>
    17fa:	88 23       	and	r24, r24
    17fc:	c1 f3       	breq	.-16     	; 0x17ee <main+0x306>
    17fe:	88 e8       	ldi	r24, 0x88	; 136
    1800:	93 e1       	ldi	r25, 0x13	; 19
    1802:	24 e1       	ldi	r18, 0x14	; 20
    1804:	31 e0       	ldi	r19, 0x01	; 1
    1806:	f9 01       	movw	r30, r18
    1808:	31 97       	sbiw	r30, 0x01	; 1
    180a:	f1 f7       	brne	.-4      	; 0x1808 <main+0x320>
    180c:	01 97       	sbiw	r24, 0x01	; 1
    180e:	d9 f7       	brne	.-10     	; 0x1806 <main+0x31e>
    1810:	81 e0       	ldi	r24, 0x01	; 1
    1812:	60 e0       	ldi	r22, 0x00	; 0
    1814:	0e 94 d2 01 	call	0x3a4	; 0x3a4 <lcd_locate>
    1818:	85 e8       	ldi	r24, 0x85	; 133
    181a:	90 e0       	ldi	r25, 0x00	; 0
    181c:	0e 94 a8 01 	call	0x350	; 0x350 <lcd_str>
    1820:	88 e8       	ldi	r24, 0x88	; 136
    1822:	93 e1       	ldi	r25, 0x13	; 19
    1824:	24 e1       	ldi	r18, 0x14	; 20
    1826:	31 e0       	ldi	r19, 0x01	; 1
    1828:	f9 01       	movw	r30, r18
    182a:	31 97       	sbiw	r30, 0x01	; 1
    182c:	f1 f7       	brne	.-4      	; 0x182a <main+0x342>
    182e:	01 97       	sbiw	r24, 0x01	; 1
    1830:	d9 f7       	brne	.-10     	; 0x1828 <main+0x340>
    1832:	80 91 8c 02 	lds	r24, 0x028C
    1836:	90 91 8d 02 	lds	r25, 0x028D
    183a:	0e 94 30 08 	call	0x1060	; 0x1060 <send_cmd>
    183e:	80 91 8e 02 	lds	r24, 0x028E
    1842:	90 91 8f 02 	lds	r25, 0x028F
    1846:	0e 94 6b 08 	call	0x10d6	; 0x10d6 <str_cmp>
    184a:	88 23       	and	r24, r24
    184c:	c1 f3       	breq	.-16     	; 0x183e <main+0x356>
    184e:	80 91 88 02 	lds	r24, 0x0288
    1852:	90 91 89 02 	lds	r25, 0x0289
    1856:	0e 94 6b 08 	call	0x10d6	; 0x10d6 <str_cmp>
    185a:	88 23       	and	r24, r24
    185c:	c1 f3       	breq	.-16     	; 0x184e <main+0x366>
    185e:	82 e0       	ldi	r24, 0x02	; 2
    1860:	60 e0       	ldi	r22, 0x00	; 0
    1862:	0e 94 d2 01 	call	0x3a4	; 0x3a4 <lcd_locate>
    1866:	8f e8       	ldi	r24, 0x8F	; 143
    1868:	90 e0       	ldi	r25, 0x00	; 0
    186a:	0e 94 a8 01 	call	0x350	; 0x350 <lcd_str>
    186e:	88 ed       	ldi	r24, 0xD8	; 216
    1870:	9e e0       	ldi	r25, 0x0E	; 14
    1872:	24 e1       	ldi	r18, 0x14	; 20
    1874:	31 e0       	ldi	r19, 0x01	; 1
    1876:	f9 01       	movw	r30, r18
    1878:	31 97       	sbiw	r30, 0x01	; 1
    187a:	f1 f7       	brne	.-4      	; 0x1878 <main+0x390>
    187c:	01 97       	sbiw	r24, 0x01	; 1
    187e:	d9 f7       	brne	.-10     	; 0x1876 <main+0x38e>
    1880:	80 91 98 02 	lds	r24, 0x0298
    1884:	90 91 99 02 	lds	r25, 0x0299
    1888:	0e 94 30 08 	call	0x1060	; 0x1060 <send_cmd>
    188c:	80 91 88 02 	lds	r24, 0x0288
    1890:	90 91 89 02 	lds	r25, 0x0289
    1894:	0e 94 6b 08 	call	0x10d6	; 0x10d6 <str_cmp>
    1898:	88 23       	and	r24, r24
    189a:	c1 f3       	breq	.-16     	; 0x188c <main+0x3a4>
    189c:	80 91 90 02 	lds	r24, 0x0290
    18a0:	90 91 91 02 	lds	r25, 0x0291
    18a4:	0e 94 30 08 	call	0x1060	; 0x1060 <send_cmd>
    18a8:	80 ed       	ldi	r24, 0xD0	; 208
    18aa:	97 e0       	ldi	r25, 0x07	; 7
    18ac:	24 e1       	ldi	r18, 0x14	; 20
    18ae:	31 e0       	ldi	r19, 0x01	; 1
    18b0:	f9 01       	movw	r30, r18
    18b2:	31 97       	sbiw	r30, 0x01	; 1
    18b4:	f1 f7       	brne	.-4      	; 0x18b2 <main+0x3ca>
    18b6:	01 97       	sbiw	r24, 0x01	; 1
    18b8:	d9 f7       	brne	.-10     	; 0x18b0 <main+0x3c8>
    18ba:	83 e0       	ldi	r24, 0x03	; 3
    18bc:	60 e0       	ldi	r22, 0x00	; 0
    18be:	0e 94 d2 01 	call	0x3a4	; 0x3a4 <lcd_locate>
    18c2:	e0 91 c3 00 	lds	r30, 0x00C3
    18c6:	ef 5e       	subi	r30, 0xEF	; 239
    18c8:	f0 e0       	ldi	r31, 0x00	; 0
    18ca:	e2 56       	subi	r30, 0x62	; 98
    18cc:	fd 4f       	sbci	r31, 0xFD	; 253
    18ce:	80 81       	ld	r24, Z
    18d0:	8f 34       	cpi	r24, 0x4F	; 79
    18d2:	99 f5       	brne	.+102    	; 0x193a <main+0x452>
    18d4:	e0 91 c3 00 	lds	r30, 0x00C3
    18d8:	ee 5e       	subi	r30, 0xEE	; 238
    18da:	f0 e0       	ldi	r31, 0x00	; 0
    18dc:	e2 56       	subi	r30, 0x62	; 98
    18de:	fd 4f       	sbci	r31, 0xFD	; 253
    18e0:	80 81       	ld	r24, Z
    18e2:	8b 34       	cpi	r24, 0x4B	; 75
    18e4:	51 f5       	brne	.+84     	; 0x193a <main+0x452>
    18e6:	e0 91 c3 00 	lds	r30, 0x00C3
    18ea:	e7 5f       	subi	r30, 0xF7	; 247
    18ec:	f0 e0       	ldi	r31, 0x00	; 0
    18ee:	e2 56       	subi	r30, 0x62	; 98
    18f0:	fd 4f       	sbci	r31, 0xFD	; 253
    18f2:	20 81       	ld	r18, Z
    18f4:	8a e0       	ldi	r24, 0x0A	; 10
    18f6:	28 9f       	mul	r18, r24
    18f8:	90 01       	movw	r18, r0
    18fa:	11 24       	eor	r1, r1
    18fc:	20 5e       	subi	r18, 0xE0	; 224
    18fe:	20 93 eb 00 	sts	0x00EB, r18
    1902:	e0 91 c3 00 	lds	r30, 0x00C3
    1906:	e6 5f       	subi	r30, 0xF6	; 246
    1908:	f0 e0       	ldi	r31, 0x00	; 0
    190a:	e2 56       	subi	r30, 0x62	; 98
    190c:	fd 4f       	sbci	r31, 0xFD	; 253
    190e:	80 81       	ld	r24, Z
    1910:	80 53       	subi	r24, 0x30	; 48
    1912:	82 0f       	add	r24, r18
    1914:	80 93 eb 00 	sts	0x00EB, r24
    1918:	80 91 63 02 	lds	r24, 0x0263
    191c:	80 93 c3 00 	sts	0x00C3, r24
    1920:	88 e9       	ldi	r24, 0x98	; 152
    1922:	90 e0       	ldi	r25, 0x00	; 0
    1924:	0e 94 a8 01 	call	0x350	; 0x350 <lcd_str>
    1928:	80 91 eb 00 	lds	r24, 0x00EB
    192c:	90 e0       	ldi	r25, 0x00	; 0
    192e:	0e 94 3c 02 	call	0x478	; 0x478 <lcd_int>
    1932:	8e e9       	ldi	r24, 0x9E	; 158
    1934:	90 e0       	ldi	r25, 0x00	; 0
    1936:	0e 94 a8 01 	call	0x350	; 0x350 <lcd_str>
    193a:	80 91 92 02 	lds	r24, 0x0292
    193e:	90 91 93 02 	lds	r25, 0x0293
    1942:	0e 94 30 08 	call	0x1060	; 0x1060 <send_cmd>
    1946:	80 ed       	ldi	r24, 0xD0	; 208
    1948:	97 e0       	ldi	r25, 0x07	; 7
    194a:	24 e1       	ldi	r18, 0x14	; 20
    194c:	31 e0       	ldi	r19, 0x01	; 1
    194e:	f9 01       	movw	r30, r18
    1950:	31 97       	sbiw	r30, 0x01	; 1
    1952:	f1 f7       	brne	.-4      	; 0x1950 <main+0x468>
    1954:	01 97       	sbiw	r24, 0x01	; 1
    1956:	d9 f7       	brne	.-10     	; 0x194e <main+0x466>
    1958:	e0 91 c3 00 	lds	r30, 0x00C3
    195c:	ea 5e       	subi	r30, 0xEA	; 234
    195e:	f0 e0       	ldi	r31, 0x00	; 0
    1960:	e2 56       	subi	r30, 0x62	; 98
    1962:	fd 4f       	sbci	r31, 0xFD	; 253
    1964:	80 81       	ld	r24, Z
    1966:	8f 34       	cpi	r24, 0x4F	; 79
    1968:	a9 f5       	brne	.+106    	; 0x19d4 <main+0x4ec>
    196a:	e0 91 c3 00 	lds	r30, 0x00C3
    196e:	e9 5e       	subi	r30, 0xE9	; 233
    1970:	f0 e0       	ldi	r31, 0x00	; 0
    1972:	e2 56       	subi	r30, 0x62	; 98
    1974:	fd 4f       	sbci	r31, 0xFD	; 253
    1976:	80 81       	ld	r24, Z
    1978:	8b 34       	cpi	r24, 0x4B	; 75
    197a:	61 f5       	brne	.+88     	; 0x19d4 <main+0x4ec>
    197c:	e0 91 c3 00 	lds	r30, 0x00C3
    1980:	e5 5f       	subi	r30, 0xF5	; 245
    1982:	f0 e0       	ldi	r31, 0x00	; 0
    1984:	e2 56       	subi	r30, 0x62	; 98
    1986:	fd 4f       	sbci	r31, 0xFD	; 253
    1988:	20 81       	ld	r18, Z
    198a:	8a e0       	ldi	r24, 0x0A	; 10
    198c:	28 9f       	mul	r18, r24
    198e:	90 01       	movw	r18, r0
    1990:	11 24       	eor	r1, r1
    1992:	20 5e       	subi	r18, 0xE0	; 224
    1994:	20 93 c4 00 	sts	0x00C4, r18
    1998:	e0 91 c3 00 	lds	r30, 0x00C3
    199c:	e4 5f       	subi	r30, 0xF4	; 244
    199e:	f0 e0       	ldi	r31, 0x00	; 0
    19a0:	e2 56       	subi	r30, 0x62	; 98
    19a2:	fd 4f       	sbci	r31, 0xFD	; 253
    19a4:	80 81       	ld	r24, Z
    19a6:	80 53       	subi	r24, 0x30	; 48
    19a8:	82 0f       	add	r24, r18
    19aa:	80 93 c4 00 	sts	0x00C4, r24
    19ae:	0e 94 e2 01 	call	0x3c4	; 0x3c4 <lcd_cls>
    19b2:	81 ea       	ldi	r24, 0xA1	; 161
    19b4:	90 e0       	ldi	r25, 0x00	; 0
    19b6:	0e 94 a8 01 	call	0x350	; 0x350 <lcd_str>
    19ba:	80 91 c4 00 	lds	r24, 0x00C4
    19be:	90 e0       	ldi	r25, 0x00	; 0
    19c0:	0e 94 3c 02 	call	0x478	; 0x478 <lcd_int>
    19c4:	87 ea       	ldi	r24, 0xA7	; 167
    19c6:	90 e0       	ldi	r25, 0x00	; 0
    19c8:	0e 94 a8 01 	call	0x350	; 0x350 <lcd_str>
    19cc:	80 91 63 02 	lds	r24, 0x0263
    19d0:	80 93 c3 00 	sts	0x00C3, r24
    19d4:	0e 94 e2 01 	call	0x3c4	; 0x3c4 <lcd_cls>
    19d8:	0e 94 f3 08 	call	0x11e6	; 0x11e6 <read_date>
    19dc:	89 b7       	in	r24, 0x39	; 57
    19de:	82 60       	ori	r24, 0x02	; 2
    19e0:	89 bf       	out	0x39, r24	; 57
    19e2:	80 91 c6 00 	lds	r24, 0x00C6
    19e6:	90 91 c7 00 	lds	r25, 0x00C7
    19ea:	60 e0       	ldi	r22, 0x00	; 0
    19ec:	4f ef       	ldi	r20, 0xFF	; 255
    19ee:	0e 94 58 02 	call	0x4b0	; 0x4b0 <send_sms>
    19f2:	88 23       	and	r24, r24
    19f4:	b1 f3       	breq	.-20     	; 0x19e2 <main+0x4fa>
    19f6:	11 e0       	ldi	r17, 0x01	; 1
    19f8:	02 e0       	ldi	r16, 0x02	; 2
    19fa:	c4 e1       	ldi	r28, 0x14	; 20
    19fc:	d1 e0       	ldi	r29, 0x01	; 1
    19fe:	0e 94 98 07 	call	0xf30	; 0xf30 <get_sms>
    1a02:	80 93 62 02 	sts	0x0262, r24
    1a06:	90 91 b7 00 	lds	r25, 0x00B7
    1a0a:	80 91 b9 00 	lds	r24, 0x00B9
    1a0e:	89 17       	cp	r24, r25
    1a10:	50 f4       	brcc	.+20     	; 0x1a26 <main+0x53e>
    1a12:	80 91 c5 00 	lds	r24, 0x00C5
    1a16:	88 23       	and	r24, r24
    1a18:	31 f4       	brne	.+12     	; 0x1a26 <main+0x53e>
    1a1a:	a9 9a       	sbi	0x15, 1	; 21
    1a1c:	80 91 e0 00 	lds	r24, 0x00E0
    1a20:	90 91 e1 00 	lds	r25, 0x00E1
    1a24:	0f c0       	rjmp	.+30     	; 0x1a44 <main+0x55c>
    1a26:	90 91 b8 00 	lds	r25, 0x00B8
    1a2a:	80 91 ba 00 	lds	r24, 0x00BA
    1a2e:	89 17       	cp	r24, r25
    1a30:	78 f4       	brcc	.+30     	; 0x1a50 <main+0x568>
    1a32:	80 91 c5 00 	lds	r24, 0x00C5
    1a36:	88 23       	and	r24, r24
    1a38:	59 f4       	brne	.+22     	; 0x1a50 <main+0x568>
    1a3a:	a9 9a       	sbi	0x15, 1	; 21
    1a3c:	80 91 e2 00 	lds	r24, 0x00E2
    1a40:	90 91 e3 00 	lds	r25, 0x00E3
    1a44:	60 e0       	ldi	r22, 0x00	; 0
    1a46:	4f ef       	ldi	r20, 0xFF	; 255
    1a48:	0e 94 58 02 	call	0x4b0	; 0x4b0 <send_sms>
    1a4c:	10 93 c5 00 	sts	0x00C5, r17
    1a50:	90 91 bc 00 	lds	r25, 0x00BC
    1a54:	80 91 bb 00 	lds	r24, 0x00BB
    1a58:	89 17       	cp	r24, r25
    1a5a:	80 f4       	brcc	.+32     	; 0x1a7c <main+0x594>
    1a5c:	80 91 c5 00 	lds	r24, 0x00C5
    1a60:	88 23       	and	r24, r24
    1a62:	61 f4       	brne	.+24     	; 0x1a7c <main+0x594>
    1a64:	a9 9a       	sbi	0x15, 1	; 21
    1a66:	80 91 e4 00 	lds	r24, 0x00E4
    1a6a:	90 91 e5 00 	lds	r25, 0x00E5
    1a6e:	60 e0       	ldi	r22, 0x00	; 0
    1a70:	4f ef       	ldi	r20, 0xFF	; 255
    1a72:	0e 94 58 02 	call	0x4b0	; 0x4b0 <send_sms>
    1a76:	10 93 c5 00 	sts	0x00C5, r17
    1a7a:	07 c0       	rjmp	.+14     	; 0x1a8a <main+0x5a2>
    1a7c:	80 91 c5 00 	lds	r24, 0x00C5
    1a80:	81 30       	cpi	r24, 0x01	; 1
    1a82:	19 f4       	brne	.+6      	; 0x1a8a <main+0x5a2>
    1a84:	a9 98       	cbi	0x15, 1	; 21
    1a86:	00 93 c5 00 	sts	0x00C5, r16
    1a8a:	80 91 c5 00 	lds	r24, 0x00C5
    1a8e:	8f 5f       	subi	r24, 0xFF	; 255
    1a90:	80 93 c5 00 	sts	0x00C5, r24
    1a94:	88 37       	cpi	r24, 0x78	; 120
    1a96:	11 f4       	brne	.+4      	; 0x1a9c <main+0x5b4>
    1a98:	10 92 c5 00 	sts	0x00C5, r1
    1a9c:	0e 94 ee 00 	call	0x1dc	; 0x1dc <dht_read>
    1aa0:	89 2b       	or	r24, r25
    1aa2:	21 f1       	breq	.+72     	; 0x1aec <main+0x604>
    1aa4:	80 91 bd 00 	lds	r24, 0x00BD
    1aa8:	80 93 b8 00 	sts	0x00B8, r24
    1aac:	80 91 bf 00 	lds	r24, 0x00BF
    1ab0:	80 93 b7 00 	sts	0x00B7, r24
    1ab4:	83 e0       	ldi	r24, 0x03	; 3
    1ab6:	60 e0       	ldi	r22, 0x00	; 0
    1ab8:	0e 94 d2 01 	call	0x3a4	; 0x3a4 <lcd_locate>
    1abc:	8a ea       	ldi	r24, 0xAA	; 170
    1abe:	90 e0       	ldi	r25, 0x00	; 0
    1ac0:	0e 94 a8 01 	call	0x350	; 0x350 <lcd_str>
    1ac4:	80 91 b7 00 	lds	r24, 0x00B7
    1ac8:	90 e0       	ldi	r25, 0x00	; 0
    1aca:	0e 94 3c 02 	call	0x478	; 0x478 <lcd_int>
    1ace:	80 e2       	ldi	r24, 0x20	; 32
    1ad0:	0e 94 9f 01 	call	0x33e	; 0x33e <lcd_char>
    1ad4:	81 eb       	ldi	r24, 0xB1	; 177
    1ad6:	90 e0       	ldi	r25, 0x00	; 0
    1ad8:	0e 94 a8 01 	call	0x350	; 0x350 <lcd_str>
    1adc:	80 91 b8 00 	lds	r24, 0x00B8
    1ae0:	90 e0       	ldi	r25, 0x00	; 0
    1ae2:	0e 94 3c 02 	call	0x478	; 0x478 <lcd_int>
    1ae6:	80 e2       	ldi	r24, 0x20	; 32
    1ae8:	0e 94 9f 01 	call	0x33e	; 0x33e <lcd_char>
    1aec:	88 e8       	ldi	r24, 0x88	; 136
    1aee:	93 e1       	ldi	r25, 0x13	; 19
    1af0:	fe 01       	movw	r30, r28
    1af2:	31 97       	sbiw	r30, 0x01	; 1
    1af4:	f1 f7       	brne	.-4      	; 0x1af2 <main+0x60a>
    1af6:	01 97       	sbiw	r24, 0x01	; 1
    1af8:	09 f4       	brne	.+2      	; 0x1afc <main+0x614>
    1afa:	81 cf       	rjmp	.-254    	; 0x19fe <main+0x516>
    1afc:	f9 cf       	rjmp	.-14     	; 0x1af0 <main+0x608>

00001afe <__udivmodqi4>:
    1afe:	99 1b       	sub	r25, r25
    1b00:	79 e0       	ldi	r23, 0x09	; 9
    1b02:	04 c0       	rjmp	.+8      	; 0x1b0c <__udivmodqi4_ep>

00001b04 <__udivmodqi4_loop>:
    1b04:	99 1f       	adc	r25, r25
    1b06:	96 17       	cp	r25, r22
    1b08:	08 f0       	brcs	.+2      	; 0x1b0c <__udivmodqi4_ep>
    1b0a:	96 1b       	sub	r25, r22

00001b0c <__udivmodqi4_ep>:
    1b0c:	88 1f       	adc	r24, r24
    1b0e:	7a 95       	dec	r23
    1b10:	c9 f7       	brne	.-14     	; 0x1b04 <__udivmodqi4_loop>
    1b12:	80 95       	com	r24
    1b14:	08 95       	ret

00001b16 <itoa>:
    1b16:	fb 01       	movw	r30, r22
    1b18:	9f 01       	movw	r18, r30
    1b1a:	e8 94       	clt
    1b1c:	42 30       	cpi	r20, 0x02	; 2
    1b1e:	c4 f0       	brlt	.+48     	; 0x1b50 <itoa+0x3a>
    1b20:	45 32       	cpi	r20, 0x25	; 37
    1b22:	b4 f4       	brge	.+44     	; 0x1b50 <itoa+0x3a>
    1b24:	4a 30       	cpi	r20, 0x0A	; 10
    1b26:	29 f4       	brne	.+10     	; 0x1b32 <itoa+0x1c>
    1b28:	97 fb       	bst	r25, 7
    1b2a:	1e f4       	brtc	.+6      	; 0x1b32 <itoa+0x1c>
    1b2c:	90 95       	com	r25
    1b2e:	81 95       	neg	r24
    1b30:	9f 4f       	sbci	r25, 0xFF	; 255
    1b32:	64 2f       	mov	r22, r20
    1b34:	77 27       	eor	r23, r23
    1b36:	0e 94 bc 0d 	call	0x1b78	; 0x1b78 <__udivmodhi4>
    1b3a:	80 5d       	subi	r24, 0xD0	; 208
    1b3c:	8a 33       	cpi	r24, 0x3A	; 58
    1b3e:	0c f0       	brlt	.+2      	; 0x1b42 <itoa+0x2c>
    1b40:	89 5d       	subi	r24, 0xD9	; 217
    1b42:	81 93       	st	Z+, r24
    1b44:	cb 01       	movw	r24, r22
    1b46:	00 97       	sbiw	r24, 0x00	; 0
    1b48:	a1 f7       	brne	.-24     	; 0x1b32 <itoa+0x1c>
    1b4a:	16 f4       	brtc	.+4      	; 0x1b50 <itoa+0x3a>
    1b4c:	5d e2       	ldi	r21, 0x2D	; 45
    1b4e:	51 93       	st	Z+, r21
    1b50:	10 82       	st	Z, r1
    1b52:	c9 01       	movw	r24, r18
    1b54:	0c 94 ac 0d 	jmp	0x1b58	; 0x1b58 <strrev>

00001b58 <strrev>:
    1b58:	dc 01       	movw	r26, r24
    1b5a:	fc 01       	movw	r30, r24
    1b5c:	67 2f       	mov	r22, r23
    1b5e:	71 91       	ld	r23, Z+
    1b60:	77 23       	and	r23, r23
    1b62:	e1 f7       	brne	.-8      	; 0x1b5c <strrev+0x4>
    1b64:	32 97       	sbiw	r30, 0x02	; 2
    1b66:	04 c0       	rjmp	.+8      	; 0x1b70 <strrev+0x18>
    1b68:	7c 91       	ld	r23, X
    1b6a:	6d 93       	st	X+, r22
    1b6c:	70 83       	st	Z, r23
    1b6e:	62 91       	ld	r22, -Z
    1b70:	ae 17       	cp	r26, r30
    1b72:	bf 07       	cpc	r27, r31
    1b74:	c8 f3       	brcs	.-14     	; 0x1b68 <strrev+0x10>
    1b76:	08 95       	ret

00001b78 <__udivmodhi4>:
    1b78:	aa 1b       	sub	r26, r26
    1b7a:	bb 1b       	sub	r27, r27
    1b7c:	51 e1       	ldi	r21, 0x11	; 17
    1b7e:	07 c0       	rjmp	.+14     	; 0x1b8e <__udivmodhi4_ep>

00001b80 <__udivmodhi4_loop>:
    1b80:	aa 1f       	adc	r26, r26
    1b82:	bb 1f       	adc	r27, r27
    1b84:	a6 17       	cp	r26, r22
    1b86:	b7 07       	cpc	r27, r23
    1b88:	10 f0       	brcs	.+4      	; 0x1b8e <__udivmodhi4_ep>
    1b8a:	a6 1b       	sub	r26, r22
    1b8c:	b7 0b       	sbc	r27, r23

00001b8e <__udivmodhi4_ep>:
    1b8e:	88 1f       	adc	r24, r24
    1b90:	99 1f       	adc	r25, r25
    1b92:	5a 95       	dec	r21
    1b94:	a9 f7       	brne	.-22     	; 0x1b80 <__udivmodhi4_loop>
    1b96:	80 95       	com	r24
    1b98:	90 95       	com	r25
    1b9a:	bc 01       	movw	r22, r24
    1b9c:	cd 01       	movw	r24, r26
    1b9e:	08 95       	ret

00001ba0 <_exit>:
    1ba0:	f8 94       	cli

00001ba2 <__stop_program>:
    1ba2:	ff cf       	rjmp	.-2      	; 0x1ba2 <__stop_program>
